Archive member included to satisfy reference by file (symbol)

/usr/lib/gcc/i686-elf/9.2.0/libgcc.a(_popcountsi2.o)
                              build/BucketAlloc.o (__popcountsi2)
/usr/lib/gcc/i686-elf/9.2.0/libgcc.a(_udivdi3.o)
                              build/sleep.o (__udivdi3)
root//usr/lib/libk.a(strlen.o)
                              build/serial.o (strlen)
root//usr/lib/libk.a(strcmp.o)
                              build/elf.o (strcmp)
root//usr/lib/libk.a(memcmp.o)
                              build/acpi.o (memcmp)
root//usr/lib/libk.a(strcpy.o)
                              build/string.o (strcpy)
root//usr/lib/libk.a(memcpy.o)
                              build/thread.o (memcpy)
root//usr/lib/libk.a(memset.o)
                              build/kernelshell.o (memset)
root//usr/lib/libk.a(printf.o)
                              build/interruptHandlers.o (printf)
root//usr/lib/libk.a(stdio.o)
                              build/inputformatter.o (stdout)
root//usr/lib/libk.a(putchar.o)
                              build/elf.o (putchar)
root//usr/lib/libk.a(fseek.o)
                              build/inputformatter.o (fseek)
root//usr/lib/libk.a(realloc.o)
                              build/kernelshell.o (realloc)
root//usr/lib/libk.a(free.o)  build/environment.o (free)
root//usr/lib/libk.a(malloc.o)
                              build/environment.o (malloc)

Discarded input sections

 .comment       0x0000000000000000       0x12 /usr/lib/gcc/i686-elf/9.2.0/crtbegin.o
 .comment       0x0000000000000000       0x12 build/pic.o
 .group         0x0000000000000000        0xc build/interrupt.o
 .comment       0x0000000000000000       0x12 build/interrupt.o
 .group         0x0000000000000000        0xc build/environment.o
 .group         0x0000000000000000        0xc build/environment.o
 .group         0x0000000000000000        0xc build/environment.o
 .group         0x0000000000000000        0xc build/environment.o
 .group         0x0000000000000000        0xc build/environment.o
 .group         0x0000000000000000        0xc build/environment.o
 .group         0x0000000000000000        0xc build/environment.o
 .group         0x0000000000000000        0xc build/environment.o
 .group         0x0000000000000000        0xc build/environment.o
 .group         0x0000000000000000        0xc build/environment.o
 .group         0x0000000000000000        0xc build/environment.o
 .group         0x0000000000000000        0xc build/environment.o
 .comment       0x0000000000000000       0x12 build/environment.o
 .comment       0x0000000000000000       0x12 build/interruptHandlers.o
 .comment       0x0000000000000000       0x12 build/gdt.o
 .group         0x0000000000000000        0x8 build/kernelshell.o
 .group         0x0000000000000000        0x8 build/kernelshell.o
 .group         0x0000000000000000        0xc build/kernelshell.o
 .group         0x0000000000000000        0x8 build/kernelshell.o
 .group         0x0000000000000000        0x8 build/kernelshell.o
 .group         0x0000000000000000        0x8 build/kernelshell.o
 .group         0x0000000000000000        0x8 build/kernelshell.o
 .group         0x0000000000000000        0x8 build/kernelshell.o
 .group         0x0000000000000000        0x8 build/kernelshell.o
 .group         0x0000000000000000        0x8 build/kernelshell.o
 .group         0x0000000000000000        0xc build/kernelshell.o
 .group         0x0000000000000000        0x8 build/kernelshell.o
 .group         0x0000000000000000        0xc build/kernelshell.o
 .group         0x0000000000000000        0xc build/kernelshell.o
 .group         0x0000000000000000        0xc build/kernelshell.o
 .group         0x0000000000000000        0xc build/kernelshell.o
 .group         0x0000000000000000        0xc build/kernelshell.o
 .group         0x0000000000000000        0xc build/kernelshell.o
 .group         0x0000000000000000        0x8 build/kernelshell.o
 .group         0x0000000000000000        0x8 build/kernelshell.o
 .group         0x0000000000000000        0xc build/kernelshell.o
 .group         0x0000000000000000        0xc build/kernelshell.o
 .group         0x0000000000000000        0x8 build/kernelshell.o
 .group         0x0000000000000000        0xc build/kernelshell.o
 .group         0x0000000000000000        0xc build/kernelshell.o
 .group         0x0000000000000000        0x8 build/kernelshell.o
 .comment       0x0000000000000000       0x12 build/kernelshell.o
 .comment       0x0000000000000000       0x12 build/acpi.o
 .group         0x0000000000000000        0x8 build/apic.o
 .group         0x0000000000000000        0x8 build/apic.o
 .group         0x0000000000000000        0xc build/apic.o
 .group         0x0000000000000000        0xc build/apic.o
 .group         0x0000000000000000        0x8 build/apic.o
 .group         0x0000000000000000        0x8 build/apic.o
 .group         0x0000000000000000        0x8 build/apic.o
 .group         0x0000000000000000        0x8 build/apic.o
 .group         0x0000000000000000        0xc build/apic.o
 .group         0x0000000000000000        0xc build/apic.o
 .group         0x0000000000000000        0xc build/apic.o
 .group         0x0000000000000000        0xc build/apic.o
 .comment       0x0000000000000000       0x12 build/apic.o
 .group         0x0000000000000000        0x8 build/devicemanager.o
 .group         0x0000000000000000        0xc build/devicemanager.o
 .group         0x0000000000000000        0x8 build/devicemanager.o
 .group         0x0000000000000000        0x8 build/devicemanager.o
 .group         0x0000000000000000        0xc build/devicemanager.o
 .group         0x0000000000000000        0x8 build/devicemanager.o
 .group         0x0000000000000000        0xc build/devicemanager.o
 .group         0x0000000000000000        0xc build/devicemanager.o
 .group         0x0000000000000000        0x8 build/devicemanager.o
 .comment       0x0000000000000000       0x12 build/devicemanager.o
 .comment       0x0000000000000000       0x12 build/sleep.o
 .comment       0x0000000000000000       0x12 build/abi.o
 .comment       0x0000000000000000       0x12 build/elf.o
 .comment       0x0000000000000000       0x12 build/alloc.o
 .comment       0x0000000000000000       0x12 build/cpuid.o
 .comment       0x0000000000000000       0x12 build/descriptor.o
 .group         0x0000000000000000        0xc build/symbolmap.o
 .group         0x0000000000000000        0xc build/symbolmap.o
 .group         0x0000000000000000        0xc build/symbolmap.o
 .group         0x0000000000000000        0xc build/symbolmap.o
 .group         0x0000000000000000        0xc build/symbolmap.o
 .group         0x0000000000000000        0xc build/symbolmap.o
 .group         0x0000000000000000        0xc build/symbolmap.o
 .text._ZNKSt4hashISt6stringEclERKS0_
                0x0000000000000000       0x85 build/symbolmap.o
 .comment       0x0000000000000000       0x12 build/symbolmap.o
 .comment       0x0000000000000000       0x12 build/io.o
 .comment       0x0000000000000000       0x12 build/cpu.o
 .group         0x0000000000000000        0xc build/main.o
 .group         0x0000000000000000        0xc build/main.o
 .group         0x0000000000000000        0x8 build/main.o
 .group         0x0000000000000000        0x8 build/main.o
 .text._ZNSt6vectorIP6DeviceED2Ev
                0x0000000000000000       0x44 build/main.o
 .text._ZNKSt6vectorIP6DeviceE4sizeEv
                0x0000000000000000        0xb build/main.o
 .text._ZNSt6vectorIP6DeviceEixEm
                0x0000000000000000       0x12 build/main.o
 .comment       0x0000000000000000       0x12 build/main.o
 .group         0x0000000000000000        0x8 build/thread.o
 .comment       0x0000000000000000       0x12 build/thread.o
 .comment       0x0000000000000000       0x12 build/semaphore.o
 .group         0x0000000000000000        0x8 build/scheduler.o
 .group         0x0000000000000000        0xc build/scheduler.o
 .group         0x0000000000000000        0x8 build/scheduler.o
 .group         0x0000000000000000        0x8 build/scheduler.o
 .group         0x0000000000000000        0xc build/scheduler.o
 .group         0x0000000000000000        0xc build/scheduler.o
 .group         0x0000000000000000        0x8 build/scheduler.o
 .comment       0x0000000000000000       0x12 build/scheduler.o
 .comment       0x0000000000000000       0x12 build/spinlock.o
 .group         0x0000000000000000        0x8 build/eventbus.o
 .group         0x0000000000000000        0x8 build/eventbus.o
 .group         0x0000000000000000        0xc build/eventbus.o
 .group         0x0000000000000000        0xc build/eventbus.o
 .group         0x0000000000000000        0xc build/eventbus.o
 .group         0x0000000000000000        0xc build/eventbus.o
 .group         0x0000000000000000        0xc build/eventbus.o
 .group         0x0000000000000000        0xc build/eventbus.o
 .group         0x0000000000000000        0xc build/eventbus.o
 .group         0x0000000000000000        0xc build/eventbus.o
 .group         0x0000000000000000        0x8 build/eventbus.o
 .group         0x0000000000000000        0x8 build/eventbus.o
 .group         0x0000000000000000        0xc build/eventbus.o
 .group         0x0000000000000000        0x8 build/eventbus.o
 .group         0x0000000000000000        0x8 build/eventbus.o
 .group         0x0000000000000000        0xc build/eventbus.o
 .group         0x0000000000000000        0xc build/eventbus.o
 .group         0x0000000000000000        0x8 build/eventbus.o
 .group         0x0000000000000000        0xc build/eventbus.o
 .group         0x0000000000000000        0xc build/eventbus.o
 .group         0x0000000000000000        0x8 build/eventbus.o
 .group         0x0000000000000000        0xc build/eventbus.o
 .group         0x0000000000000000        0xc build/eventbus.o
 .group         0x0000000000000000        0xc build/eventbus.o
 .group         0x0000000000000000        0xc build/eventbus.o
 .group         0x0000000000000000        0xc build/eventbus.o
 .group         0x0000000000000000        0x8 build/eventbus.o
 .text._ZN9threading6Thread19initializeArgumentsEj
                0x0000000000000000        0x6 build/eventbus.o
 .text._ZNK9threading6Thread20stackSizeOfArgumentsEv
                0x0000000000000000        0xa build/eventbus.o
 .text._ZN15UniqueGeneratorIjE4nextEv
                0x0000000000000000       0x22 build/eventbus.o
 .text._ZSt7roundupImET_S0_S0_
                0x0000000000000000       0x34 build/eventbus.o
 .comment       0x0000000000000000       0x12 build/eventbus.o
 .group         0x0000000000000000        0x8 build/inputformatter.o
 .group         0x0000000000000000        0x8 build/inputformatter.o
 .group         0x0000000000000000        0xc build/inputformatter.o
 .group         0x0000000000000000        0xc build/inputformatter.o
 .group         0x0000000000000000        0x8 build/inputformatter.o
 .group         0x0000000000000000        0xc build/inputformatter.o
 .group         0x0000000000000000        0x8 build/inputformatter.o
 .group         0x0000000000000000        0x8 build/inputformatter.o
 .group         0x0000000000000000        0xc build/inputformatter.o
 .group         0x0000000000000000        0x8 build/inputformatter.o
 .group         0x0000000000000000        0xc build/inputformatter.o
 .group         0x0000000000000000        0x8 build/inputformatter.o
 .group         0x0000000000000000        0xc build/inputformatter.o
 .group         0x0000000000000000        0x8 build/inputformatter.o
 .group         0x0000000000000000        0x8 build/inputformatter.o
 .group         0x0000000000000000        0x8 build/inputformatter.o
 .group         0x0000000000000000        0xc build/inputformatter.o
 .group         0x0000000000000000        0xc build/inputformatter.o
 .group         0x0000000000000000        0xc build/inputformatter.o
 .group         0x0000000000000000        0xc build/inputformatter.o
 .group         0x0000000000000000        0x8 build/inputformatter.o
 .comment       0x0000000000000000       0x12 build/inputformatter.o
 .comment       0x0000000000000000       0x12 build/rtti.o
 .group         0x0000000000000000        0xc build/keyboard.o
 .group         0x0000000000000000        0xc build/keyboard.o
 .group         0x0000000000000000        0xc build/keyboard.o
 .comment       0x0000000000000000       0x12 build/keyboard.o
 .group         0x0000000000000000        0xc build/serial.o
 .group         0x0000000000000000        0xc build/serial.o
 .group         0x0000000000000000        0xc build/serial.o
 .text._ZN6DeviceC2Ev
                0x0000000000000000       0x10 build/serial.o
 .text._ZN11BlockDeviceC2Ev
                0x0000000000000000       0x22 build/serial.o
 .comment       0x0000000000000000       0x12 build/serial.o
 .group         0x0000000000000000        0xc build/memorystream.o
 .group         0x0000000000000000        0xc build/memorystream.o
 .group         0x0000000000000000        0xc build/memorystream.o
 .text._ZN6DeviceC2Ev
                0x0000000000000000       0x10 build/memorystream.o
 .text._ZN11BlockDeviceC2Ev
                0x0000000000000000       0x22 build/memorystream.o
 .comment       0x0000000000000000       0x12 build/memorystream.o
 .group         0x0000000000000000        0xc build/blockdevice.o
 .comment       0x0000000000000000       0x12 build/blockdevice.o
 .group         0x0000000000000000        0xc build/device.o
 .comment       0x0000000000000000       0x12 build/device.o
 .group         0x0000000000000000        0xc build/vga.o
 .group         0x0000000000000000        0xc build/vga.o
 .group         0x0000000000000000        0xc build/vga.o
 .text._ZN6DeviceC2Ev
                0x0000000000000000       0x10 build/vga.o
 .text._ZN11BlockDeviceC2Ev
                0x0000000000000000       0x22 build/vga.o
 .comment       0x0000000000000000       0x12 build/vga.o
 .group         0x0000000000000000        0xc build/atapiodevice.o
 .comment       0x0000000000000000       0x12 build/atapiodevice.o
 .group         0x0000000000000000        0xc build/atapacketdevice.o
 .comment       0x0000000000000000       0x12 build/atapacketdevice.o
 .comment       0x0000000000000000       0x12 build/ata.o
 .group         0x0000000000000000        0xc build/atadevice.o
 .group         0x0000000000000000        0xc build/atadevice.o
 .group         0x0000000000000000        0xc build/atadevice.o
 .text._ZN6DeviceC2Ev
                0x0000000000000000       0x10 build/atadevice.o
 .text._ZN11BlockDeviceC2Ev
                0x0000000000000000       0x22 build/atadevice.o
 .comment       0x0000000000000000       0x12 build/atadevice.o
 .group         0x0000000000000000        0xc build/pciide.o
 .comment       0x0000000000000000       0x12 build/pciide.o
 .comment       0x0000000000000000       0x12 build/pci.o
 .group         0x0000000000000000        0xc build/pcidevice.o
 .group         0x0000000000000000        0xc build/pcidevice.o
 .text._ZN6DeviceC2Ev
                0x0000000000000000       0x10 build/pcidevice.o
 .comment       0x0000000000000000       0x12 build/pcidevice.o
 .comment       0x0000000000000000       0x12 build/BucketAlloc.o
 .comment       0x0000000000000000       0x12 build/LinearAlloc.o
 .group         0x0000000000000000        0xc build/iso9660.o
 .group         0x0000000000000000       0x14 build/iso9660.o
 .group         0x0000000000000000        0xc build/iso9660.o
 .group         0x0000000000000000        0x8 build/iso9660.o
 .group         0x0000000000000000        0xc build/iso9660.o
 .group         0x0000000000000000        0x8 build/iso9660.o
 .group         0x0000000000000000        0x8 build/iso9660.o
 .group         0x0000000000000000        0xc build/iso9660.o
 .group         0x0000000000000000        0x8 build/iso9660.o
 .group         0x0000000000000000        0x8 build/iso9660.o
 .group         0x0000000000000000        0x8 build/iso9660.o
 .group         0x0000000000000000        0xc build/iso9660.o
 .group         0x0000000000000000        0xc build/iso9660.o
 .group         0x0000000000000000        0xc build/iso9660.o
 .group         0x0000000000000000        0xc build/iso9660.o
 .group         0x0000000000000000        0xc build/iso9660.o
 .comment       0x0000000000000000       0x12 build/iso9660.o
 .group         0x0000000000000000        0xc build/filesystem.o
 .group         0x0000000000000000        0x8 build/filesystem.o
 .group         0x0000000000000000        0x8 build/filesystem.o
 .group         0x0000000000000000        0xc build/filesystem.o
 .group         0x0000000000000000        0x8 build/filesystem.o
 .group         0x0000000000000000        0xc build/filesystem.o
 .group         0x0000000000000000        0x8 build/filesystem.o
 .group         0x0000000000000000        0xc build/filesystem.o
 .text._ZNSt6vectorISt6stringED2Ev
                0x0000000000000000       0x5d build/filesystem.o
 .text._ZNKSt6vectorISt6stringE4sizeEv
                0x0000000000000000        0xb build/filesystem.o
 .text._ZNSt6vectorISt6stringEC2Ev
                0x0000000000000000       0x23 build/filesystem.o
 .text._ZNSt6vectorISt6stringE10testExpandEv
                0x0000000000000000       0x73 build/filesystem.o
 .comment       0x0000000000000000       0x12 build/filesystem.o
 .group         0x0000000000000000        0xc build/virtualfilesystem.o
 .group         0x0000000000000000       0x14 build/virtualfilesystem.o
 .group         0x0000000000000000        0xc build/virtualfilesystem.o
 .group         0x0000000000000000        0xc build/virtualfilesystem.o
 .group         0x0000000000000000        0xc build/virtualfilesystem.o
 .group         0x0000000000000000        0xc build/virtualfilesystem.o
 .group         0x0000000000000000        0x8 build/virtualfilesystem.o
 .group         0x0000000000000000        0xc build/virtualfilesystem.o
 .group         0x0000000000000000        0x8 build/virtualfilesystem.o
 .group         0x0000000000000000        0xc build/virtualfilesystem.o
 .group         0x0000000000000000        0x8 build/virtualfilesystem.o
 .group         0x0000000000000000        0xc build/virtualfilesystem.o
 .group         0x0000000000000000        0xc build/virtualfilesystem.o
 .group         0x0000000000000000        0xc build/virtualfilesystem.o
 .group         0x0000000000000000        0xc build/virtualfilesystem.o
 .group         0x0000000000000000        0xc build/virtualfilesystem.o
 .group         0x0000000000000000        0x8 build/virtualfilesystem.o
 .group         0x0000000000000000        0x8 build/virtualfilesystem.o
 .group         0x0000000000000000        0x8 build/virtualfilesystem.o
 .group         0x0000000000000000        0x8 build/virtualfilesystem.o
 .group         0x0000000000000000        0x8 build/virtualfilesystem.o
 .group         0x0000000000000000        0xc build/virtualfilesystem.o
 .group         0x0000000000000000        0xc build/virtualfilesystem.o
 .group         0x0000000000000000        0xc build/virtualfilesystem.o
 .group         0x0000000000000000        0xc build/virtualfilesystem.o
 .group         0x0000000000000000        0xc build/virtualfilesystem.o
 .group         0x0000000000000000        0xc build/virtualfilesystem.o
 .group         0x0000000000000000        0xc build/virtualfilesystem.o
 .text._ZN8DirEntryC2Ev
                0x0000000000000000       0x10 build/virtualfilesystem.o
 .text._ZN8DirEntryD2Ev
                0x0000000000000000       0x10 build/virtualfilesystem.o
 .text._ZN8DirEntryD0Ev
                0x0000000000000000       0x24 build/virtualfilesystem.o
 .text._ZN10FileSystemC2Ev
                0x0000000000000000       0x10 build/virtualfilesystem.o
 .rodata._ZTV10FileSystem
                0x0000000000000000        0xc build/virtualfilesystem.o
 .rodata._ZTV8DirEntry
                0x0000000000000000       0x2c build/virtualfilesystem.o
 .comment       0x0000000000000000       0x12 build/virtualfilesystem.o
 .comment       0x0000000000000000       0x12 build/new.o
 .comment       0x0000000000000000       0x12 build/linkedlist.o
 .group         0x0000000000000000        0x8 build/string.o
 .comment       0x0000000000000000       0x12 build/string.o
 .group         0x0000000000000000        0xc build/virtual.o
 .group         0x0000000000000000        0xc build/virtual.o
 .comment       0x0000000000000000       0x12 build/virtual.o
 .comment       0x0000000000000000       0x12 build/physical.o
 .comment       0x0000000000000000       0x12 /usr/lib/gcc/i686-elf/9.2.0/crtend.o
 .comment       0x0000000000000000       0x12 /usr/lib/gcc/i686-elf/9.2.0/libgcc.a(_popcountsi2.o)
 .comment       0x0000000000000000       0x12 /usr/lib/gcc/i686-elf/9.2.0/libgcc.a(_udivdi3.o)
 .comment       0x0000000000000000       0x12 root//usr/lib/libk.a(strlen.o)
 .comment       0x0000000000000000       0x12 root//usr/lib/libk.a(strcmp.o)
 .comment       0x0000000000000000       0x12 root//usr/lib/libk.a(memcmp.o)
 .comment       0x0000000000000000       0x12 root//usr/lib/libk.a(strcpy.o)
 .comment       0x0000000000000000       0x12 root//usr/lib/libk.a(memcpy.o)
 .comment       0x0000000000000000       0x12 root//usr/lib/libk.a(memset.o)
 .comment       0x0000000000000000       0x12 root//usr/lib/libk.a(printf.o)
 .comment       0x0000000000000000       0x12 root//usr/lib/libk.a(stdio.o)
 .comment       0x0000000000000000       0x12 root//usr/lib/libk.a(putchar.o)
 .comment       0x0000000000000000       0x12 root//usr/lib/libk.a(fseek.o)
 .comment       0x0000000000000000       0x12 root//usr/lib/libk.a(realloc.o)
 .comment       0x0000000000000000       0x12 root//usr/lib/libk.a(free.o)
 .comment       0x0000000000000000       0x12 root//usr/lib/libk.a(malloc.o)

Memory Configuration

Name             Origin             Length             Attributes
*default*        0x0000000000000000 0xffffffffffffffff

Linker script and memory map

LOAD build/crti.o
LOAD /usr/lib/gcc/i686-elf/9.2.0/crtbegin.o
LOAD build/pic.o
LOAD build/interrupt.o
LOAD build/environment.o
LOAD build/interruptHandlers.o
LOAD build/gdt.o
LOAD build/kernelshell.o
LOAD build/acpi.o
LOAD build/apic.o
LOAD build/devicemanager.o
LOAD build/sleep.o
LOAD build/abi.o
LOAD build/elf.o
LOAD build/alloc.o
LOAD build/cpuid.o
LOAD build/descriptor.o
LOAD build/symbolmap.o
LOAD build/io.o
LOAD build/cpu.o
LOAD build/main.o
LOAD build/thread.o
LOAD build/semaphore.o
LOAD build/scheduler.o
LOAD build/spinlock.o
LOAD build/eventbus.o
LOAD build/inputformatter.o
LOAD build/rtti.o
LOAD build/keyboard.o
LOAD build/serial.o
LOAD build/memorystream.o
LOAD build/blockdevice.o
LOAD build/device.o
LOAD build/vga.o
LOAD build/atapiodevice.o
LOAD build/atapacketdevice.o
LOAD build/ata.o
LOAD build/atadevice.o
LOAD build/pciide.o
LOAD build/pci.o
LOAD build/pcidevice.o
LOAD build/BucketAlloc.o
LOAD build/LinearAlloc.o
LOAD build/iso9660.o
LOAD build/filesystem.o
LOAD build/virtualfilesystem.o
LOAD build/new.o
LOAD build/linkedlist.o
LOAD build/string.o
LOAD build/virtual.o
LOAD build/physical.o
LOAD build/boot.o
LOAD build/descriptor_asm.o
LOAD build/smp_trampoline.o
LOAD build/thread_asm.o
LOAD /usr/lib/gcc/i686-elf/9.2.0/crtend.o
LOAD build/crtn.o
LOAD /usr/lib/gcc/i686-elf/9.2.0/libgcc.a
LOAD root//usr/lib/libk.a
                0x0000000000008000                REAL_BASE = 0x8000
                0x00000000c0100000                . = 0xc0100000
                0x00000000c0100000                __KERNEL_BEGIN = .

.text           0x00000000c0100000    0x144a8 load address 0x0000000000100000
 *(.multiboot)
 .multiboot     0x00000000c0100000        0xc build/boot.o
 *(.init)
 .init          0x00000000c010000c        0x3 build/crti.o
                0x00000000c010000c                _init
 .init          0x00000000c010000f        0x5 /usr/lib/gcc/i686-elf/9.2.0/crtbegin.o
 .init          0x00000000c0100014        0x5 /usr/lib/gcc/i686-elf/9.2.0/crtend.o
 .init          0x00000000c0100019        0x2 build/crtn.o
 *(.fini)
 .fini          0x00000000c010001b        0x3 build/crti.o
                0x00000000c010001b                _fini
 .fini          0x00000000c010001e        0x5 /usr/lib/gcc/i686-elf/9.2.0/crtbegin.o
 .fini          0x00000000c0100023        0x2 build/crtn.o
 EXCLUDE_FILE(build/smp_trampoline.o) *(.text*)
 .text          0x00000000c0100025        0x0 build/crti.o
 *fill*         0x00000000c0100025        0xb 
 .text          0x00000000c0100030      0x145 /usr/lib/gcc/i686-elf/9.2.0/crtbegin.o
 .text          0x00000000c0100175      0x2a2 build/pic.o
                0x00000000c0100175                _Z12endInterrupth
                0x00000000c01001ab                _Z13clearAllMasksv
                0x00000000c01001d5                _Z9enableIrqh
                0x00000000c010025a                _Z10disableIrqh
                0x00000000c01002dd                _Z7mapPicshh
                0x00000000c01003c6                _Z7PicInitv
 *fill*         0x00000000c0100417        0x1 
 .text          0x00000000c0100418     0x40d9 build/interrupt.o
                0x00000000c0100418                _ZN13IdtDescriptorC1Ev
                0x00000000c0100418                _ZN13IdtDescriptorC2Ev
                0x00000000c0100446                _ZN13IdtDescriptorC2Ejj
                0x00000000c0100446                _ZN13IdtDescriptorC1Ejj
                0x00000000c0100464                _ZN13IdtDescriptor9setValuesEjj
                0x00000000c01004ac                _ZN13IdtDescriptor9setOffsetEj
                0x00000000c01004cc                _ZN3Idt9getLengthEv
                0x00000000c01004da                _ZN3Idt9setLengthEj
                0x00000000c01004ec                _ZN3Idt11setFunctionEjPFvjE
                0x00000000c0100504                _ZN3Idt12callFunctionEj
                0x00000000c0100528                _ZN3Idt8setEntryEj13IdtDescriptor
                0x00000000c0100544                _ZN3Idt8addEntryE13IdtDescriptor
                0x00000000c010057a                _ZN3Idt8getEntryEj
                0x00000000c010058e                cppInt
                0x00000000c01005d8                _Z14IdtcreateEmptyv
                0x00000000c0100670                _Z8IdtFlushv
                0x00000000c01006af                _Z7IdtBasev
                0x00000000c01006b9                _Z8IdtLimitv
                0x00000000c01006d1                end_interrupt
                0x00000000c0100708                IdtRegisterInterrupts
 *fill*         0x00000000c01044f1        0x1 
 .text._ZN3IdtC2Ev
                0x00000000c01044f2       0x2f build/interrupt.o
                0x00000000c01044f2                _ZN3IdtC1Ev
                0x00000000c01044f2                _ZN3IdtC2Ev
 *fill*         0x00000000c0104521        0x1 
 .text          0x00000000c0104522      0x15d build/environment.o
                0x00000000c0104522                _ZN11EnvironmentC1Ev
                0x00000000c0104522                _ZN11EnvironmentC2Ev
                0x00000000c0104552                _ZN11EnvironmentC2ERKS_
                0x00000000c0104552                _ZN11EnvironmentC1ERKS_
                0x00000000c0104594                _ZN11EnvironmentD2Ev
                0x00000000c0104594                _ZN11EnvironmentD1Ev
                0x00000000c01045be                _ZN11EnvironmentaSERKS_
                0x00000000c01045dc                _ZN11Environment3setERKSt6stringS2_
                0x00000000c0104606                _ZN11Environment5unsetERKSt6string
                0x00000000c0104622                _ZN11Environment5issetERKSt6string
                0x00000000c0104642                _ZN11Environment3getERKSt6string
 *fill*         0x00000000c010467f        0x1 
 .text._ZNKSt4hashISt6stringEclERKS0_
                0x00000000c0104680       0x85 build/environment.o
                0x00000000c0104680                _ZNKSt4hashISt6stringEclERKS0_
 *fill*         0x00000000c0104705        0x1 
 .text._ZNSt13unordered_mapISt6stringS0_EC2Ev
                0x00000000c0104706       0x48 build/environment.o
                0x00000000c0104706                _ZNSt13unordered_mapISt6stringS0_EC2Ev
                0x00000000c0104706                _ZNSt13unordered_mapISt6stringS0_EC1Ev
 .text._ZNSt13unordered_mapISt6stringS0_ED2Ev
                0x00000000c010474e       0x17 build/environment.o
                0x00000000c010474e                _ZNSt13unordered_mapISt6stringS0_ED2Ev
                0x00000000c010474e                _ZNSt13unordered_mapISt6stringS0_ED1Ev
 *fill*         0x00000000c0104765        0x1 
 .text._ZNSt13unordered_mapISt6stringS0_EaSERKS1_
                0x00000000c0104766       0x2a build/environment.o
                0x00000000c0104766                _ZNSt13unordered_mapISt6stringS0_EaSERKS1_
 .text._ZNSt13unordered_mapISt6stringS0_EixERKS0_
                0x00000000c0104790      0x16d build/environment.o
                0x00000000c0104790                _ZNSt13unordered_mapISt6stringS0_EixERKS0_
 *fill*         0x00000000c01048fd        0x1 
 .text._ZNSt13unordered_mapISt6stringS0_E5eraseERKS0_
                0x00000000c01048fe      0x199 build/environment.o
                0x00000000c01048fe                _ZNSt13unordered_mapISt6stringS0_E5eraseERKS0_
 *fill*         0x00000000c0104a97        0x1 
 .text._ZNSt13unordered_mapISt6stringS0_E5countERKS0_
                0x00000000c0104a98       0x89 build/environment.o
                0x00000000c0104a98                _ZNSt13unordered_mapISt6stringS0_E5countERKS0_
 *fill*         0x00000000c0104b21        0x1 
 .text._ZNSt13unordered_mapISt6stringS0_E15allocateBucketsEv
                0x00000000c0104b22      0x10c build/environment.o
                0x00000000c0104b22                _ZNSt13unordered_mapISt6stringS0_E15allocateBucketsEv
 .text._ZNSt13unordered_mapISt6stringS0_E5clearEv
                0x00000000c0104c2e      0x1fc build/environment.o
                0x00000000c0104c2e                _ZNSt13unordered_mapISt6stringS0_E5clearEv
 .text._ZNSt13unordered_mapISt6stringS0_E8copyFromERKS1_
                0x00000000c0104e2a      0x144 build/environment.o
                0x00000000c0104e2a                _ZNSt13unordered_mapISt6stringS0_E8copyFromERKS1_
 .text._ZNSt13unordered_mapISt6stringS0_E12increaseSizeEv
                0x00000000c0104f6e      0x223 build/environment.o
                0x00000000c0104f6e                _ZNSt13unordered_mapISt6stringS0_E12increaseSizeEv
 *fill*         0x00000000c0105191        0x1 
 .text._ZNSt13unordered_mapISt6stringS0_E3putERKS0_S3_
                0x00000000c0105192       0xf0 build/environment.o
                0x00000000c0105192                _ZNSt13unordered_mapISt6stringS0_E3putERKS0_S3_
 .text          0x00000000c0105282       0xaa build/interruptHandlers.o
                0x00000000c0105282                _Z19intHandlerUndefinedj
                0x00000000c01052b0                _Z16intHandlerWakeupj
                0x00000000c01052b6                _Z13intHandlerAtaj
                0x00000000c01052e1                _Z36intHandlerGeneralProtectionViolationj
                0x00000000c01052fa                _Z19intHandlerPageFaultj
                0x00000000c0105313                _Z18intHandlerSpuriousj
 .text          0x00000000c010532c      0x213 build/gdt.o
                0x00000000c010532c                _ZN13GdtDescriptorC1Ev
                0x00000000c010532c                _ZN13GdtDescriptorC2Ev
                0x00000000c0105360                _ZN13GdtDescriptorC1Ejj
                0x00000000c0105360                _ZN13GdtDescriptorC2Ejj
                0x00000000c01053b5                _Z13GdtCreateFlatv
                0x00000000c01054a8                _Z8GdtFlushv
                0x00000000c01054d3                _Z7GdtSizev
                0x00000000c01054df                _Z9GdtOffsetv
 *fill*         0x00000000c010553f        0x1 
 .text          0x00000000c0105540      0x902 build/kernelshell.o
                0x00000000c0105540                _Z9allocinfoP11KernelShellPSt6vectorISt6stringE
                0x00000000c010558c                _Z10allocmergeP11KernelShellPSt6vectorISt6stringE
                0x00000000c01055c8                _Z11devicesinfoP11KernelShellPSt6vectorISt6stringE
                0x00000000c01055f4                _Z3catP11KernelShellPSt6vectorISt6stringE
                0x00000000c010570d                _Z2lsP11KernelShellPSt6vectorISt6stringE
                0x00000000c0105891                _Z4helpP11KernelShellPSt6vectorISt6stringE
                0x00000000c0105994                _ZN11KernelShellC2Ev
                0x00000000c0105994                _ZN11KernelShellC1Ev
                0x00000000c0105b24                _ZN11KernelShell5enterEv
                0x00000000c0105d5e                _ZN11KernelShell8commandsEv
                0x00000000c0105d6a                _ZN11KernelShell12splitCommandESt6string
 .text._ZN9threading6Thread19initializeArgumentsEj
                0x00000000c0105e42        0x6 build/kernelshell.o
                0x00000000c0105e42                _ZN9threading6Thread19initializeArgumentsEj
 .text._ZNK9threading6Thread20stackSizeOfArgumentsEv
                0x00000000c0105e48        0xa build/kernelshell.o
                0x00000000c0105e48                _ZNK9threading6Thread20stackSizeOfArgumentsEv
 .text._ZNSt6vectorISt6stringED2Ev
                0x00000000c0105e52       0x5d build/kernelshell.o
                0x00000000c0105e52                _ZNSt6vectorISt6stringED1Ev
                0x00000000c0105e52                _ZNSt6vectorISt6stringED2Ev
 *fill*         0x00000000c0105eaf        0x1 
 .text._ZNKSt6vectorISt6stringE4sizeEv
                0x00000000c0105eb0        0xb build/kernelshell.o
                0x00000000c0105eb0                _ZNKSt6vectorISt6stringE4sizeEv
 *fill*         0x00000000c0105ebb        0x1 
 .text._ZNSt6vectorISt6stringE2atEm
                0x00000000c0105ebc       0x12 build/kernelshell.o
                0x00000000c0105ebc                _ZNSt6vectorISt6stringE2atEm
 .text._ZNKSt6vectorISt4pairIPKcPFvP11KernelShellPS_ISt6stringEEEE4sizeEv
                0x00000000c0105ece        0xb build/kernelshell.o
                0x00000000c0105ece                _ZNKSt6vectorISt4pairIPKcPFvP11KernelShellPS_ISt6stringEEEE4sizeEv
 *fill*         0x00000000c0105ed9        0x1 
 .text._ZNSt6vectorISt4pairIPKcPFvP11KernelShellPS_ISt6stringEEEEixEm
                0x00000000c0105eda       0x12 build/kernelshell.o
                0x00000000c0105eda                _ZNSt6vectorISt4pairIPKcPFvP11KernelShellPS_ISt6stringEEEEixEm
 .text._ZNSt6vectorISt4pairIPKcPFvP11KernelShellPS_ISt6stringEEEE4backEv
                0x00000000c0105eec       0x1a build/kernelshell.o
                0x00000000c0105eec                _ZNSt6vectorISt4pairIPKcPFvP11KernelShellPS_ISt6stringEEEE4backEv
 .text._ZNSt6vectorISt4pairIPKcPFvP11KernelShellPS_ISt6stringEEEEC2Ev
                0x00000000c0105f06       0x23 build/kernelshell.o
                0x00000000c0105f06                _ZNSt6vectorISt4pairIPKcPFvP11KernelShellPS_ISt6stringEEEEC2Ev
                0x00000000c0105f06                _ZNSt6vectorISt4pairIPKcPFvP11KernelShellPS_ISt6stringEEEEC1Ev
 *fill*         0x00000000c0105f29        0x1 
 .text._ZNSt4pairIPKcPFvP11KernelShellPSt6vectorISt6stringEEEC2ERKS1_RKS9_
                0x00000000c0105f2a       0x1b build/kernelshell.o
                0x00000000c0105f2a                _ZNSt4pairIPKcPFvP11KernelShellPSt6vectorISt6stringEEEC1ERKS1_RKS9_
                0x00000000c0105f2a                _ZNSt4pairIPKcPFvP11KernelShellPSt6vectorISt6stringEEEC2ERKS1_RKS9_
 *fill*         0x00000000c0105f45        0x1 
 .text._ZNSt6vectorISt4pairIPKcPFvP11KernelShellPS_ISt6stringEEEE9push_backEOSA_
                0x00000000c0105f46       0x53 build/kernelshell.o
                0x00000000c0105f46                _ZNSt6vectorISt4pairIPKcPFvP11KernelShellPS_ISt6stringEEEE9push_backEOSA_
 *fill*         0x00000000c0105f99        0x1 
 .text._ZNSt6vectorISt6stringEC2Ev
                0x00000000c0105f9a       0x23 build/kernelshell.o
                0x00000000c0105f9a                _ZNSt6vectorISt6stringEC2Ev
                0x00000000c0105f9a                _ZNSt6vectorISt6stringEC1Ev
 *fill*         0x00000000c0105fbd        0x1 
 .text._ZNSt6vectorISt6stringEaSEOS1_
                0x00000000c0105fbe       0x95 build/kernelshell.o
                0x00000000c0105fbe                _ZNSt6vectorISt6stringEaSEOS1_
 *fill*         0x00000000c0106053        0x1 
 .text._ZNK9threading6Thread20stackSizeOfArgumentsIPSt6vectorISt6stringEJEEEjT_DpT0_
                0x00000000c0106054       0x2d build/kernelshell.o
                0x00000000c0106054                _ZNK9threading6Thread20stackSizeOfArgumentsIPSt6vectorISt6stringEJEEEjT_DpT0_
 *fill*         0x00000000c0106081        0x1 
 .text._ZNK9threading6Thread20stackSizeOfArgumentsIP11KernelShellJPSt6vectorISt6stringEEEEjT_DpT0_
                0x00000000c0106082       0x30 build/kernelshell.o
                0x00000000c0106082                _ZNK9threading6Thread20stackSizeOfArgumentsIP11KernelShellJPSt6vectorISt6stringEEEEjT_DpT0_
 .text._ZN9threading6ThreadC2IJP11KernelShellPSt6vectorISt6stringEEEEPFvDpT_ES9_
                0x00000000c01060b2       0xe0 build/kernelshell.o
                0x00000000c01060b2                _ZN9threading6ThreadC1IJP11KernelShellPSt6vectorISt6stringEEEEPFvDpT_ES9_
                0x00000000c01060b2                _ZN9threading6ThreadC2IJP11KernelShellPSt6vectorISt6stringEEEEPFvDpT_ES9_
 .text._ZNSt6vectorISt6stringE9push_backEOS0_
                0x00000000c0106192       0x53 build/kernelshell.o
                0x00000000c0106192                _ZNSt6vectorISt6stringE9push_backEOS0_
 *fill*         0x00000000c01061e5        0x1 
 .text._ZNSt6vectorISt4pairIPKcPFvP11KernelShellPS_ISt6stringEEEE10testExpandEv
                0x00000000c01061e6       0x73 build/kernelshell.o
                0x00000000c01061e6                _ZNSt6vectorISt4pairIPKcPFvP11KernelShellPS_ISt6stringEEEE10testExpandEv
 *fill*         0x00000000c0106259        0x1 
 .text._ZN15UniqueGeneratorIjE4nextEv
                0x00000000c010625a       0x22 build/kernelshell.o
                0x00000000c010625a                _ZN15UniqueGeneratorIjE4nextEv
 .text._ZSt7roundupImET_S0_S0_
                0x00000000c010627c       0x34 build/kernelshell.o
                0x00000000c010627c                _ZSt7roundupImET_S0_S0_
 .text._ZN9threading6Thread19initializeArgumentsIP11KernelShellJPSt6vectorISt6stringEEEEvjT_DpT0_
                0x00000000c01062b0       0x5c build/kernelshell.o
                0x00000000c01062b0                _ZN9threading6Thread19initializeArgumentsIP11KernelShellJPSt6vectorISt6stringEEEEvjT_DpT0_
 .text._ZNSt6vectorISt6stringE10testExpandEv
                0x00000000c010630c       0x73 build/kernelshell.o
                0x00000000c010630c                _ZNSt6vectorISt6stringE10testExpandEv
 .text._ZSt4moveIRP11KernelShellEONSt16remove_referenceIT_E4typeEOS4_
                0x00000000c010637f        0x8 build/kernelshell.o
                0x00000000c010637f                _ZSt4moveIRP11KernelShellEONSt16remove_referenceIT_E4typeEOS4_
 *fill*         0x00000000c0106387        0x1 
 .text._ZNK9threading6Thread20stackSizeOfArgumentsIP11KernelShellJEEEjT_DpT0_
                0x00000000c0106388       0x2d build/kernelshell.o
                0x00000000c0106388                _ZNK9threading6Thread20stackSizeOfArgumentsIP11KernelShellJEEEjT_DpT0_
 *fill*         0x00000000c01063b5        0x1 
 .text._ZN9threading6Thread19initializeArgumentsIPSt6vectorISt6stringEJEEEvjT_DpT0_
                0x00000000c01063b6       0x59 build/kernelshell.o
                0x00000000c01063b6                _ZN9threading6Thread19initializeArgumentsIPSt6vectorISt6stringEJEEEvjT_DpT0_
 .text._ZSt4moveIRPSt6vectorISt6stringEEONSt16remove_referenceIT_E4typeEOS6_
                0x00000000c010640f        0x8 build/kernelshell.o
                0x00000000c010640f                _ZSt4moveIRPSt6vectorISt6stringEEONSt16remove_referenceIT_E4typeEOS6_
 .text          0x00000000c0106417      0x26b build/acpi.o
                0x00000000c0106417                _ZN4acpi4initEv
                0x00000000c010652a                _ZN4acpi16validateChecksumEPhj
                0x00000000c0106567                _ZN4acpi10findHeaderEPKc
                0x00000000c01065e6                _ZN4acpi9mapHeaderEPNS_13ACPISDTHeaderE
 .text          0x00000000c0106682      0xc19 build/apic.o
                0x00000000c0106682                _ZN4apic7enabledEv
                0x00000000c010668e                _ZN4apic12endInterruptEj
                0x00000000c01066a4                _ZN4apic4InitEv
                0x00000000c0106c88                _ZN4apic8setSleepEhmb
                0x00000000c0106cd1                _ZN4apic12StartAllCpusEPFvvE
                0x00000000c0106f44                _ZN4apic10disableIrqEh
                0x00000000c0106fea                _ZN4apic9enableIrqEh
                0x00000000c0107090                _ZN4apic15wakeupOtherCpusEv
                0x00000000c01070d4                _ZN4apic13wakeupAllCpusEv
                0x00000000c0107118                _ZN4apic12wakeupOneCpuEh
                0x00000000c010716a                _ZN4apic2idEv
                0x00000000c0107189                SmpEntryPoint
 *fill*         0x00000000c010729b        0x1 
 .text._ZNSt6vectorIPN4acpi11MADTIoEntryEEC2Ev
                0x00000000c010729c       0x23 build/apic.o
                0x00000000c010729c                _ZNSt6vectorIPN4acpi11MADTIoEntryEEC1Ev
                0x00000000c010729c                _ZNSt6vectorIPN4acpi11MADTIoEntryEEC2Ev
 *fill*         0x00000000c01072bf        0x1 
 .text._ZNSt6vectorIPN4acpi14MADTLocalEntryEEC2Ev
                0x00000000c01072c0       0x23 build/apic.o
                0x00000000c01072c0                _ZNSt6vectorIPN4acpi14MADTLocalEntryEEC2Ev
                0x00000000c01072c0                _ZNSt6vectorIPN4acpi14MADTLocalEntryEEC1Ev
 *fill*         0x00000000c01072e3        0x1 
 .text._ZNSt6vectorIPN4acpi14MADTLocalEntryEE9push_backEOS2_
                0x00000000c01072e4       0x4b build/apic.o
                0x00000000c01072e4                _ZNSt6vectorIPN4acpi14MADTLocalEntryEE9push_backEOS2_
 *fill*         0x00000000c010732f        0x1 
 .text._ZNSt6vectorIPN4acpi11MADTIoEntryEE9push_backERKS2_
                0x00000000c0107330       0x4b build/apic.o
                0x00000000c0107330                _ZNSt6vectorIPN4acpi11MADTIoEntryEE9push_backERKS2_
 *fill*         0x00000000c010737b        0x1 
 .text._ZNKSt6vectorIPN4acpi11MADTIoEntryEE4sizeEv
                0x00000000c010737c        0xb build/apic.o
                0x00000000c010737c                _ZNKSt6vectorIPN4acpi11MADTIoEntryEE4sizeEv
 *fill*         0x00000000c0107387        0x1 
 .text._ZNSt6vectorIPN4acpi11MADTIoEntryEEixEm
                0x00000000c0107388       0x12 build/apic.o
                0x00000000c0107388                _ZNSt6vectorIPN4acpi11MADTIoEntryEEixEm
 .text._ZNKSt6vectorIPN4acpi14MADTLocalEntryEE4sizeEv
                0x00000000c010739a        0xb build/apic.o
                0x00000000c010739a                _ZNKSt6vectorIPN4acpi14MADTLocalEntryEE4sizeEv
 *fill*         0x00000000c01073a5        0x1 
 .text._ZNSt6vectorIPN4acpi14MADTLocalEntryEEixEm
                0x00000000c01073a6       0x12 build/apic.o
                0x00000000c01073a6                _ZNSt6vectorIPN4acpi14MADTLocalEntryEEixEm
 .text._ZNSt6vectorIPN4acpi14MADTLocalEntryEE10testExpandEv
                0x00000000c01073b8       0x73 build/apic.o
                0x00000000c01073b8                _ZNSt6vectorIPN4acpi14MADTLocalEntryEE10testExpandEv
 *fill*         0x00000000c010742b        0x1 
 .text._ZNSt6vectorIPN4acpi11MADTIoEntryEE10testExpandEv
                0x00000000c010742c       0x73 build/apic.o
                0x00000000c010742c                _ZNSt6vectorIPN4acpi11MADTIoEntryEE10testExpandEv
 *fill*         0x00000000c010749f        0x1 
 .text._ZNSt6vectorIPN4acpi11MADTIoEntryEED2Ev
                0x00000000c01074a0       0x44 build/apic.o
                0x00000000c01074a0                _ZNSt6vectorIPN4acpi11MADTIoEntryEED2Ev
                0x00000000c01074a0                _ZNSt6vectorIPN4acpi11MADTIoEntryEED1Ev
 .text._ZNSt6vectorIPN4acpi14MADTLocalEntryEED2Ev
                0x00000000c01074e4       0x44 build/apic.o
                0x00000000c01074e4                _ZNSt6vectorIPN4acpi14MADTLocalEntryEED1Ev
                0x00000000c01074e4                _ZNSt6vectorIPN4acpi14MADTLocalEntryEED2Ev
 .text          0x00000000c0107528      0x42f build/devicemanager.o
                0x00000000c0107528                _ZN13DeviceManagerC2Ev
                0x00000000c0107528                _ZN13DeviceManagerC1Ev
                0x00000000c0107588                _ZN13DeviceManagerD1Ev
                0x00000000c0107588                _ZN13DeviceManagerD2Ev
                0x00000000c0107786                _ZN13DeviceManager9addDeviceEP6Device
                0x00000000c01077c4                _ZN13DeviceManager13destroyDeviceEP6Device
                0x00000000c0107840                _ZN13DeviceManager9getDeviceE10DeviceTypem
                0x00000000c01078a2                _ZN13DeviceManager10getDevicesE10DeviceType
 *fill*         0x00000000c0107957        0x1 
 .text._ZNSt6vectorIP6DeviceEC2Ev
                0x00000000c0107958       0x23 build/devicemanager.o
                0x00000000c0107958                _ZNSt6vectorIP6DeviceEC2Ev
                0x00000000c0107958                _ZNSt6vectorIP6DeviceEC1Ev
 *fill*         0x00000000c010797b        0x1 
 .text._ZNSt6vectorIP6DeviceED2Ev
                0x00000000c010797c       0x44 build/devicemanager.o
                0x00000000c010797c                _ZNSt6vectorIP6DeviceED2Ev
                0x00000000c010797c                _ZNSt6vectorIP6DeviceED1Ev
 .text._ZNKSt6vectorIP6DeviceE4sizeEv
                0x00000000c01079c0        0xb build/devicemanager.o
                0x00000000c01079c0                _ZNKSt6vectorIP6DeviceE4sizeEv
 *fill*         0x00000000c01079cb        0x1 
 .text._ZNSt6vectorIP6DeviceEixEm
                0x00000000c01079cc       0x12 build/devicemanager.o
                0x00000000c01079cc                _ZNSt6vectorIP6DeviceEixEm
 .text._ZNSt6vectorIP6DeviceE9push_backERKS1_
                0x00000000c01079de       0x4b build/devicemanager.o
                0x00000000c01079de                _ZNSt6vectorIP6DeviceE9push_backERKS1_
 *fill*         0x00000000c0107a29        0x1 
 .text._ZNKSt6vectorIP6DeviceE4findERKS1_
                0x00000000c0107a2a       0x42 build/devicemanager.o
                0x00000000c0107a2a                _ZNKSt6vectorIP6DeviceE4findERKS1_
 .text._ZNSt6vectorIP6DeviceE5eraseEm
                0x00000000c0107a6c       0x6b build/devicemanager.o
                0x00000000c0107a6c                _ZNSt6vectorIP6DeviceE5eraseEm
 *fill*         0x00000000c0107ad7        0x1 
 .text._ZNSt6vectorIP6DeviceE10testExpandEv
                0x00000000c0107ad8       0x73 build/devicemanager.o
                0x00000000c0107ad8                _ZNSt6vectorIP6DeviceE10testExpandEv
 .text._ZSt4moveIRP6DeviceEONSt16remove_referenceIT_E4typeEOS4_
                0x00000000c0107b4b        0x8 build/devicemanager.o
                0x00000000c0107b4b                _ZSt4moveIRP6DeviceEONSt16remove_referenceIT_E4typeEOS4_
 .text          0x00000000c0107b53      0x11a build/sleep.o
                0x00000000c0107b53                _Z8sleepIRQjPvS_
                0x00000000c0107b63                _Z9apicSleepm
                0x00000000c0107b83                _Z13apicHardSleepm
                0x00000000c0107bfb                _Z5sleepm
                0x00000000c0107c34                _Z9hardSleepm
 .text          0x00000000c0107c6d        0xc build/abi.o
                0x00000000c0107c6d                __cxa_pure_virtual
                0x00000000c0107c73                __cxa_atexit
 .text          0x00000000c0107c79      0x68d build/elf.o
                0x00000000c0107c79                _ZN3elf18get_program_headerEPNS_10elf_headerEj
                0x00000000c0107ca7                _ZN3elf18get_section_headerEPNS_10elf_headerEj
                0x00000000c0107cd7                _ZN3elf16get_section_nameEPNS_10elf_headerEj
                0x00000000c0107d21                _ZN3elf15allocate_nobitsEPNS_14section_headerE
                0x00000000c0107d46                _ZN3elf16get_symbol_valueEPNS_10elf_headerEPNS_14section_headerEjR9SymbolMap
                0x00000000c0107e25                _ZN3elf17find_symbol_valueEPNS_10elf_headerEPNS_14section_headerEPKcR9SymbolMap
                0x00000000c0107efc                _ZN3elf14relocate_entryEPNS_10elf_headerEPNS_14section_headerENS_7elf_relER9SymbolMap
                0x00000000c0107fb5                _ZN3elf16relocate_sectionEPNS_10elf_headerEPNS_14section_headerER9SymbolMap
                0x00000000c010801f                _ZN3elf8dump_elfEPhR9SymbolMap
                0x00000000c01082d6                testprint
 .text          0x00000000c0108306       0x42 build/alloc.o
 .text          0x00000000c0108348       0x23 build/cpuid.o
                0x00000000c0108348                _Z5cpuidi
 .text          0x00000000c010836b        0x0 build/descriptor.o
 *fill*         0x00000000c010836b        0x1 
 .text          0x00000000c010836c      0x1ce build/symbolmap.o
                0x00000000c010836c                _Z16string_to_offsetPKc
                0x00000000c01083ee                _ZN9SymbolMapC1EPKc
                0x00000000c01083ee                _ZN9SymbolMapC2EPKc
                0x00000000c01084b2                _ZN9SymbolMap11find_symbolEPKc
 .text._ZNSt13unordered_mapISt6string14SymbolMapEntryEC2Ev
                0x00000000c010853a       0x48 build/symbolmap.o
                0x00000000c010853a                _ZNSt13unordered_mapISt6string14SymbolMapEntryEC2Ev
                0x00000000c010853a                _ZNSt13unordered_mapISt6string14SymbolMapEntryEC1Ev
 .text._ZNSt13unordered_mapISt6string14SymbolMapEntryEixERKS0_
                0x00000000c0108582      0x16b build/symbolmap.o
                0x00000000c0108582                _ZNSt13unordered_mapISt6string14SymbolMapEntryEixERKS0_
 *fill*         0x00000000c01086ed        0x1 
 .text._ZNSt13unordered_mapISt6string14SymbolMapEntryE5countERKS0_
                0x00000000c01086ee       0x89 build/symbolmap.o
                0x00000000c01086ee                _ZNSt13unordered_mapISt6string14SymbolMapEntryE5countERKS0_
 *fill*         0x00000000c0108777        0x1 
 .text._ZNSt13unordered_mapISt6string14SymbolMapEntryE15allocateBucketsEv
                0x00000000c0108778      0x10c build/symbolmap.o
                0x00000000c0108778                _ZNSt13unordered_mapISt6string14SymbolMapEntryE15allocateBucketsEv
 .text._ZNSt13unordered_mapISt6string14SymbolMapEntryE12increaseSizeEv
                0x00000000c0108884      0x1e6 build/symbolmap.o
                0x00000000c0108884                _ZNSt13unordered_mapISt6string14SymbolMapEntryE12increaseSizeEv
 .text._ZNSt13unordered_mapISt6string14SymbolMapEntryE3putERKS0_RKS1_
                0x00000000c0108a6a       0xf0 build/symbolmap.o
                0x00000000c0108a6a                _ZNSt13unordered_mapISt6string14SymbolMapEntryE3putERKS0_RKS1_
 .text          0x00000000c0108b5a      0x11c build/io.o
                0x00000000c0108b5a                _Z4outbth
                0x00000000c0108b7b                _Z4outwtt
                0x00000000c0108b9c                _Z4outltj
                0x00000000c0108bb4                _Z5outswtPKvm
                0x00000000c0108be9                _Z3inbt
                0x00000000c0108c06                _Z3inwt
                0x00000000c0108c25                _Z3inlt
                0x00000000c0108c41                _Z4inswtPvm
 .text          0x00000000c0108c76       0xee build/cpu.o
                0x00000000c0108c76                _ZN3CPU9dumpstackEj
                0x00000000c0108cd4                _ZN3CPU5panicEPKc
                0x00000000c0108d22                _ZN3CPU5panicEv
                0x00000000c0108d5d                _ZN3CPU4haltEv
 .text          0x00000000c0108d64      0x80a build/main.o
                0x00000000c0108d64                _Z7initCpuv
                0x00000000c0108dbb                _Z10initMemoryP14multiboot_info
                0x00000000c0108f5b                _Z8printrecP8DirEntry
                0x00000000c01090ee                tthread1
                0x00000000c0109117                _Z8cpu_mainv
                0x00000000c010916d                _Z5printi
                0x00000000c0109191                _Z16startup_listenerPvjjjjS_
                0x00000000c0109388                main
 .text._ZNSt6vectorIP6DeviceEC2ERKS2_
                0x00000000c010956e       0x9b build/main.o
                0x00000000c010956e                _ZNSt6vectorIP6DeviceEC1ERKS2_
                0x00000000c010956e                _ZNSt6vectorIP6DeviceEC2ERKS2_
 *fill*         0x00000000c0109609        0x1 
 .text          0x00000000c010960a      0x392 build/thread.o
                0x00000000c010960a                _ZN9threading6ThreadC1ERS0_
                0x00000000c010960a                _ZN9threading6ThreadC2ERS0_
                0x00000000c0109678                _ZN9threading6ThreadC2EOS0_
                0x00000000c0109678                _ZN9threading6ThreadC1EOS0_
                0x00000000c01096c4                _ZN9threading6ThreadD1Ev
                0x00000000c01096c4                _ZN9threading6ThreadD2Ev
                0x00000000c01096f0                _ZN9threading6ThreadaSERS0_
                0x00000000c0109784                _ZN9threading6ThreadaSEOS0_
                0x00000000c01097dc                _ZN9threading6Thread5enterEv
                0x00000000c0109868                _ZN9threading6Thread2idEv
                0x00000000c0109874                _ZN9threading6Thread8finishedEv
                0x00000000c0109880                _ZN9threading6Thread8blockingEv
                0x00000000c010988c                _ZN9threading6Thread11setBlockingEb
                0x00000000c01098a6                _ZN9threading6Thread4killEv
                0x00000000c01098b3                _ZN9threading4exitEv
                0x00000000c01098e2                _ZN9threading17is_core_in_threadEh
                0x00000000c0109900                get_parent_stack
                0x00000000c0109918                _ZN9threading25is_current_core_in_threadEv
                0x00000000c0109934                is_current_core_in_thread
                0x00000000c0109941                _ZN9threading13currentThreadEv
 .text._ZN15UniqueGeneratorIjEC2Ej
                0x00000000c010999c        0xe build/thread.o
                0x00000000c010999c                _ZN15UniqueGeneratorIjEC1Ej
                0x00000000c010999c                _ZN15UniqueGeneratorIjEC2Ej
 .text          0x00000000c01099aa      0x112 build/semaphore.o
                0x00000000c01099aa                _ZN9threading9SemaphoreC1Ei
                0x00000000c01099aa                _ZN9threading9SemaphoreC2Ei
                0x00000000c01099cc                _ZN9threading9Semaphore4lockEv
                0x00000000c0109a26                _ZN9threading9Semaphore8try_lockEv
                0x00000000c0109a84                _ZN9threading9Semaphore7releaseEv
 .text          0x00000000c0109abc      0x11d build/scheduler.o
                0x00000000c0109abc                _ZN9threading9SchedulerC1Ev
                0x00000000c0109abc                _ZN9threading9SchedulerC2Ev
                0x00000000c0109ae6                _ZN9threading9Scheduler8scheduleEPNS_6ThreadE
                0x00000000c0109b26                _ZN9threading9Scheduler5enterEv
 *fill*         0x00000000c0109bd9        0x1 
 .text._ZNSt6vectorIPN9threading6ThreadEEC2Ev
                0x00000000c0109bda       0x23 build/scheduler.o
                0x00000000c0109bda                _ZNSt6vectorIPN9threading6ThreadEEC2Ev
                0x00000000c0109bda                _ZNSt6vectorIPN9threading6ThreadEEC1Ev
 *fill*         0x00000000c0109bfd        0x1 
 .text._ZNSt6vectorIPN9threading6ThreadEE9push_backERKS2_
                0x00000000c0109bfe       0x4b build/scheduler.o
                0x00000000c0109bfe                _ZNSt6vectorIPN9threading6ThreadEE9push_backERKS2_
 *fill*         0x00000000c0109c49        0x1 
 .text._ZNKSt6vectorIPN9threading6ThreadEE4sizeEv
                0x00000000c0109c4a        0xb build/scheduler.o
                0x00000000c0109c4a                _ZNKSt6vectorIPN9threading6ThreadEE4sizeEv
 *fill*         0x00000000c0109c55        0x1 
 .text._ZNSt6vectorIPN9threading6ThreadEEixEm
                0x00000000c0109c56       0x12 build/scheduler.o
                0x00000000c0109c56                _ZNSt6vectorIPN9threading6ThreadEEixEm
 .text._ZNSt6vectorIPN9threading6ThreadEE5eraseEm
                0x00000000c0109c68       0x6b build/scheduler.o
                0x00000000c0109c68                _ZNSt6vectorIPN9threading6ThreadEE5eraseEm
 *fill*         0x00000000c0109cd3        0x1 
 .text._ZNSt6vectorIPN9threading6ThreadEE10testExpandEv
                0x00000000c0109cd4       0x73 build/scheduler.o
                0x00000000c0109cd4                _ZNSt6vectorIPN9threading6ThreadEE10testExpandEv
 .text._ZSt4moveIRPN9threading6ThreadEEONSt16remove_referenceIT_E4typeEOS5_
                0x00000000c0109d47        0x8 build/scheduler.o
                0x00000000c0109d47                _ZSt4moveIRPN9threading6ThreadEEONSt16remove_referenceIT_E4typeEOS5_
 *fill*         0x00000000c0109d4f        0x1 
 .text          0x00000000c0109d50       0x7c build/spinlock.o
                0x00000000c0109d50                _ZN9threading8SpinlockC2Ev
                0x00000000c0109d50                _ZN9threading8SpinlockC1Ev
                0x00000000c0109d5c                _ZN9threading8Spinlock4lockEv
                0x00000000c0109d8a                _ZN9threading8Spinlock8try_lockEv
                0x00000000c0109db0                _ZN9threading8Spinlock7releaseEv
 .text          0x00000000c0109dcc      0x155 build/eventbus.o
                0x00000000c0109dcc                _ZN8EventBusC1Ev
                0x00000000c0109dcc                _ZN8EventBusC2Ev
                0x00000000c0109de6                _ZN8EventBus9pushEventEjjjjPv
                0x00000000c0109e48                _ZN8EventBus16registerListenerEjjjPvPFvS0_jjjjS0_E
                0x00000000c0109eca                _ZN8EventBus10eventEntryEjjjjPv
 *fill*         0x00000000c0109f21        0x1 
 .text._ZNK9threading6Thread20stackSizeOfArgumentsIPvJEEEjT_DpT0_
                0x00000000c0109f22       0x2d build/eventbus.o
                0x00000000c0109f22                _ZNK9threading6Thread20stackSizeOfArgumentsIPvJEEEjT_DpT0_
 *fill*         0x00000000c0109f4f        0x1 
 .text._ZNK9threading6Thread20stackSizeOfArgumentsIjJPvEEEjT_DpT0_
                0x00000000c0109f50       0x30 build/eventbus.o
                0x00000000c0109f50                _ZNK9threading6Thread20stackSizeOfArgumentsIjJPvEEEjT_DpT0_
 .text._ZNK9threading6Thread20stackSizeOfArgumentsIjJjPvEEEjT_DpT0_
                0x00000000c0109f80       0x33 build/eventbus.o
                0x00000000c0109f80                _ZNK9threading6Thread20stackSizeOfArgumentsIjJjPvEEEjT_DpT0_
 *fill*         0x00000000c0109fb3        0x1 
 .text._ZNK9threading6Thread20stackSizeOfArgumentsIjJjjPvEEEjT_DpT0_
                0x00000000c0109fb4       0x33 build/eventbus.o
                0x00000000c0109fb4                _ZNK9threading6Thread20stackSizeOfArgumentsIjJjjPvEEEjT_DpT0_
 *fill*         0x00000000c0109fe7        0x1 
 .text._ZNK9threading6Thread20stackSizeOfArgumentsIjJjjjPvEEEjT_DpT0_
                0x00000000c0109fe8       0x39 build/eventbus.o
                0x00000000c0109fe8                _ZNK9threading6Thread20stackSizeOfArgumentsIjJjjjPvEEEjT_DpT0_
 *fill*         0x00000000c010a021        0x1 
 .text._ZNK9threading6Thread20stackSizeOfArgumentsIP8EventBusJjjjjPvEEEjT_DpT0_
                0x00000000c010a022       0x3c build/eventbus.o
                0x00000000c010a022                _ZNK9threading6Thread20stackSizeOfArgumentsIP8EventBusJjjjjPvEEEjT_DpT0_
 .text._ZNK9threading6Thread20stackSizeOfArgumentsIM8EventBusFvjjjjPvEJPS2_jjjjS3_EEEjT_DpT0_
                0x00000000c010a05e       0x3f build/eventbus.o
                0x00000000c010a05e                _ZNK9threading6Thread20stackSizeOfArgumentsIM8EventBusFvjjjjPvEJPS2_jjjjS3_EEEjT_DpT0_
 *fill*         0x00000000c010a09d        0x1 
 .text._ZN9threading6ThreadC2I8EventBusJjjjjPvEEEMT_FvDpT0_EPS4_S6_
                0x00000000c010a09e      0x109 build/eventbus.o
                0x00000000c010a09e                _ZN9threading6ThreadC2I8EventBusJjjjjPvEEEMT_FvDpT0_EPS4_S6_
                0x00000000c010a09e                _ZN9threading6ThreadC1I8EventBusJjjjjPvEEEMT_FvDpT0_EPS4_S6_
 *fill*         0x00000000c010a1a7        0x1 
 .text._ZN9threading6Thread19initializeArgumentsIM8EventBusFvjjjjPvEJPS2_jjjjS3_EEEvjT_DpT0_
                0x00000000c010a1a8       0x70 build/eventbus.o
                0x00000000c010a1a8                _ZN9threading6Thread19initializeArgumentsIM8EventBusFvjjjjPvEJPS2_jjjjS3_EEEvjT_DpT0_
 .text._Z24threadingFunctionWrapperI8EventBusJjjjjPvEEvMT_FvDpT0_EPS2_S4_
                0x00000000c010a218       0x50 build/eventbus.o
                0x00000000c010a218                _Z24threadingFunctionWrapperI8EventBusJjjjjPvEEvMT_FvDpT0_EPS2_S4_
 .text._ZSt4moveIRM8EventBusFvjjjjPvEEONSt16remove_referenceIT_E4typeEOS6_
                0x00000000c010a268        0x8 build/eventbus.o
                0x00000000c010a268                _ZSt4moveIRM8EventBusFvjjjjPvEEONSt16remove_referenceIT_E4typeEOS6_
 .text._ZNK9threading6Thread20stackSizeOfArgumentsIM8EventBusFvjjjjPvEJEEEjT_DpT0_
                0x00000000c010a270       0x2d build/eventbus.o
                0x00000000c010a270                _ZNK9threading6Thread20stackSizeOfArgumentsIM8EventBusFvjjjjPvEJEEEjT_DpT0_
 *fill*         0x00000000c010a29d        0x1 
 .text._ZN9threading6Thread19initializeArgumentsIP8EventBusJjjjjPvEEEvjT_DpT0_
                0x00000000c010a29e       0x68 build/eventbus.o
                0x00000000c010a29e                _ZN9threading6Thread19initializeArgumentsIP8EventBusJjjjjPvEEEvjT_DpT0_
 .text._ZSt4moveIRP8EventBusEONSt16remove_referenceIT_E4typeEOS4_
                0x00000000c010a306        0x8 build/eventbus.o
                0x00000000c010a306                _ZSt4moveIRP8EventBusEONSt16remove_referenceIT_E4typeEOS4_
 .text._ZNK9threading6Thread20stackSizeOfArgumentsIP8EventBusJEEEjT_DpT0_
                0x00000000c010a30e       0x2d build/eventbus.o
                0x00000000c010a30e                _ZNK9threading6Thread20stackSizeOfArgumentsIP8EventBusJEEEjT_DpT0_
 *fill*         0x00000000c010a33b        0x1 
 .text._ZN9threading6Thread19initializeArgumentsIjJjjjPvEEEvjT_DpT0_
                0x00000000c010a33c       0x65 build/eventbus.o
                0x00000000c010a33c                _ZN9threading6Thread19initializeArgumentsIjJjjjPvEEEvjT_DpT0_
 .text._ZSt4moveIRjEONSt16remove_referenceIT_E4typeEOS2_
                0x00000000c010a3a1        0x8 build/eventbus.o
                0x00000000c010a3a1                _ZSt4moveIRjEONSt16remove_referenceIT_E4typeEOS2_
 *fill*         0x00000000c010a3a9        0x1 
 .text._ZNK9threading6Thread20stackSizeOfArgumentsIjJEEEjT_DpT0_
                0x00000000c010a3aa       0x2d build/eventbus.o
                0x00000000c010a3aa                _ZNK9threading6Thread20stackSizeOfArgumentsIjJEEEjT_DpT0_
 *fill*         0x00000000c010a3d7        0x1 
 .text._ZN9threading6Thread19initializeArgumentsIjJjjPvEEEvjT_DpT0_
                0x00000000c010a3d8       0x62 build/eventbus.o
                0x00000000c010a3d8                _ZN9threading6Thread19initializeArgumentsIjJjjPvEEEvjT_DpT0_
 .text._ZN9threading6Thread19initializeArgumentsIjJjPvEEEvjT_DpT0_
                0x00000000c010a43a       0x5c build/eventbus.o
                0x00000000c010a43a                _ZN9threading6Thread19initializeArgumentsIjJjPvEEEvjT_DpT0_
 .text._ZN9threading6Thread19initializeArgumentsIjJPvEEEvjT_DpT0_
                0x00000000c010a496       0x5c build/eventbus.o
                0x00000000c010a496                _ZN9threading6Thread19initializeArgumentsIjJPvEEEvjT_DpT0_
 .text._ZN9threading6Thread19initializeArgumentsIPvJEEEvjT_DpT0_
                0x00000000c010a4f2       0x59 build/eventbus.o
                0x00000000c010a4f2                _ZN9threading6Thread19initializeArgumentsIPvJEEEvjT_DpT0_
 .text._ZSt4moveIRPvEONSt16remove_referenceIT_E4typeEOS3_
                0x00000000c010a54b        0x8 build/eventbus.o
                0x00000000c010a54b                _ZSt4moveIRPvEONSt16remove_referenceIT_E4typeEOS3_
 *fill*         0x00000000c010a553        0x1 
 .text          0x00000000c010a554      0xa07 build/inputformatter.o
                0x00000000c010a554                _ZN14InputFormatterC2Ev
                0x00000000c010a554                _ZN14InputFormatterC1Ev
                0x00000000c010a5bc                _ZN14InputFormatter21handleVirtualKeyEventEN8keyboard15VirtualKeyEventE
                0x00000000c010a9fa                _ZNK14InputFormatter11isLineReadyEv
                0x00000000c010aa06                _ZN14InputFormatter7addCharEh
                0x00000000c010ab12                _ZN14InputFormatter8gotoLineEi
                0x00000000c010ac92                _ZN14InputFormatter12moveCursorByEi
                0x00000000c010ad40                _ZN14InputFormatter12moveCursorToEi
                0x00000000c010ad66                _ZN14InputFormatter11removeCharsEm
                0x00000000c010aed0                _ZN14InputFormatter11getNextLineEv
 *fill*         0x00000000c010af5b        0x1 
 .text._ZNSt6vectorIS_IcEEC2Ev
                0x00000000c010af5c       0x23 build/inputformatter.o
                0x00000000c010af5c                _ZNSt6vectorIS_IcEEC1Ev
                0x00000000c010af5c                _ZNSt6vectorIS_IcEEC2Ev
 *fill*         0x00000000c010af7f        0x1 
 .text._ZNSt6vectorIcEC2Ev
                0x00000000c010af80       0x23 build/inputformatter.o
                0x00000000c010af80                _ZNSt6vectorIcEC2Ev
                0x00000000c010af80                _ZNSt6vectorIcEC1Ev
 *fill*         0x00000000c010afa3        0x1 
 .text._ZNSt6vectorIcED2Ev
                0x00000000c010afa4       0x44 build/inputformatter.o
                0x00000000c010afa4                _ZNSt6vectorIcED1Ev
                0x00000000c010afa4                _ZNSt6vectorIcED2Ev
 .text._ZNSt6vectorIS_IcEE9push_backEOS0_
                0x00000000c010afe8       0x59 build/inputformatter.o
                0x00000000c010afe8                _ZNSt6vectorIS_IcEE9push_backEOS0_
 *fill*         0x00000000c010b041        0x1 
 .text._ZNSt6vectorIS_IcEE4backEv
                0x00000000c010b042       0x1e build/inputformatter.o
                0x00000000c010b042                _ZNSt6vectorIS_IcEE4backEv
 .text._ZNSt6vectorIcE9push_backEOc
                0x00000000c010b060       0x49 build/inputformatter.o
                0x00000000c010b060                _ZNSt6vectorIcE9push_backEOc
 *fill*         0x00000000c010b0a9        0x1 
 .text._ZNKSt6vectorIS_IcEE4sizeEv
                0x00000000c010b0aa        0xb build/inputformatter.o
                0x00000000c010b0aa                _ZNKSt6vectorIS_IcEE4sizeEv
 *fill*         0x00000000c010b0b5        0x1 
 .text._ZNKSt6vectorIcE4sizeEv
                0x00000000c010b0b6        0xb build/inputformatter.o
                0x00000000c010b0b6                _ZNKSt6vectorIcE4sizeEv
 *fill*         0x00000000c010b0c1        0x1 
 .text._ZNSt6vectorIcE6insertEmRKc
                0x00000000c010b0c2       0xa7 build/inputformatter.o
                0x00000000c010b0c2                _ZNSt6vectorIcE6insertEmRKc
 *fill*         0x00000000c010b169        0x1 
 .text._ZNSt6vectorIcEixEm
                0x00000000c010b16a        0xf build/inputformatter.o
                0x00000000c010b16a                _ZNSt6vectorIcEixEm
 *fill*         0x00000000c010b179        0x1 
 .text._ZNSt6vectorIcE5clearEv
                0x00000000c010b17a       0x58 build/inputformatter.o
                0x00000000c010b17a                _ZNSt6vectorIcE5clearEv
 .text._ZNSt6vectorIS_IcEEixEm
                0x00000000c010b1d2       0x18 build/inputformatter.o
                0x00000000c010b1d2                _ZNSt6vectorIS_IcEEixEm
 .text._ZNSt6vectorIcE9push_backERKc
                0x00000000c010b1ea       0x49 build/inputformatter.o
                0x00000000c010b1ea                _ZNSt6vectorIcE9push_backERKc
 *fill*         0x00000000c010b233        0x1 
 .text._ZNSt6vectorIcE4backEv
                0x00000000c010b234       0x15 build/inputformatter.o
                0x00000000c010b234                _ZNSt6vectorIcE4backEv
 *fill*         0x00000000c010b249        0x1 
 .text._ZNSt6vectorIcE8pop_backEv
                0x00000000c010b24a       0x1f build/inputformatter.o
                0x00000000c010b24a                _ZNSt6vectorIcE8pop_backEv
 *fill*         0x00000000c010b269        0x1 
 .text._ZNSt6vectorIcE4dataEv
                0x00000000c010b26a        0xa build/inputformatter.o
                0x00000000c010b26a                _ZNSt6vectorIcE4dataEv
 .text._ZNSt6vectorIcE5eraseEm
                0x00000000c010b274       0x66 build/inputformatter.o
                0x00000000c010b274                _ZNSt6vectorIcE5eraseEm
 .text._ZNSt6vectorIcEC2ERKS0_
                0x00000000c010b2da       0x93 build/inputformatter.o
                0x00000000c010b2da                _ZNSt6vectorIcEC1ERKS0_
                0x00000000c010b2da                _ZNSt6vectorIcEC2ERKS0_
 *fill*         0x00000000c010b36d        0x1 
 .text._ZNSt6vectorIS_IcEE10testExpandEv
                0x00000000c010b36e       0x7d build/inputformatter.o
                0x00000000c010b36e                _ZNSt6vectorIS_IcEE10testExpandEv
 *fill*         0x00000000c010b3eb        0x1 
 .text._ZNSt6vectorIcE10testExpandEv
                0x00000000c010b3ec       0x69 build/inputformatter.o
                0x00000000c010b3ec                _ZNSt6vectorIcE10testExpandEv
 .text._ZSt4moveIRcEONSt16remove_referenceIT_E4typeEOS2_
                0x00000000c010b455        0x8 build/inputformatter.o
                0x00000000c010b455                _ZSt4moveIRcEONSt16remove_referenceIT_E4typeEOS2_
 .text          0x00000000c010b45d       0x17 build/rtti.o
                0x00000000c010b45d                _Z12generateTypev
 .text          0x00000000c010b474      0xd6b build/keyboard.o
                0x00000000c010b474                _ZN8keyboard10initializeEv
                0x00000000c010b4d2                _ZN8keyboard15VirtualKeyEventC1Ev
                0x00000000c010b4d2                _ZN8keyboard15VirtualKeyEventC2Ev
                0x00000000c010b4e6                _ZN8keyboard15VirtualKeyEventC1ENS_14VirtualKeycodeEh
                0x00000000c010b4e6                _ZN8keyboard15VirtualKeyEventC2ENS_14VirtualKeycodeEh
                0x00000000c010b50e                _ZN8keyboard14KeyboardDriverC1Ev
                0x00000000c010b50e                _ZN8keyboard14KeyboardDriverC2Ev
                0x00000000c010b5ce                _ZN8keyboard14KeyboardDriverD2Ev
                0x00000000c010b5ce                _ZN8keyboard14KeyboardDriverD1Ev
                0x00000000c010b5f0                _ZN8keyboard14KeyboardDriverD0Ev
                0x00000000c010b614                _ZN8keyboard18intHandlerKeyboardEj
                0x00000000c010b65a                _ZN8keyboard14KeyboardDriver9enableIRQEv
                0x00000000c010b67a                _ZN8keyboard14KeyboardDriver15waitForResponseEv
                0x00000000c010b6ae                _ZN8keyboard14KeyboardDriver11sendCommandEh
                0x00000000c010b720                _ZN8keyboard14KeyboardDriver15sendDataCommandEhh
                0x00000000c010b7d0                _ZN8keyboard14KeyboardDriver13sendKBCommandEh
                0x00000000c010b822                _ZN8keyboard14KeyboardDriver17sendDataKBCommandEhh
                0x00000000c010b8c4                _ZN8keyboard14KeyboardDriver10interrupt1Ej
                0x00000000c010b9a6                _ZN8keyboard14KeyboardDriver14getScanCodeSetEv
                0x00000000c010b9ea                _ZN8keyboard14KeyboardDriver14setScanCodeSetEh
                0x00000000c010ba38                _ZN8keyboard14KeyboardDriver22setScanCodeTranslationEb
                0x00000000c010bab0                _ZNK8keyboard14KeyboardDriver13getDeviceTypeEv
                0x00000000c010baba                _ZNK8keyboard14KeyboardDriver13getDeviceInfoEPv
                0x00000000c010bad2                _ZN8keyboard14KeyboardDriver5writeEPKvm
                0x00000000c010bc3e                _ZN8keyboard14KeyboardDriver5writeEPKv
                0x00000000c010bdac                _ZN8keyboard14KeyboardDriver5writeEc
                0x00000000c010bef2                _ZN8keyboard14KeyboardDriver4readEPvm
                0x00000000c010bf5a                _ZN8keyboard14KeyboardDriver4seekEii
                0x00000000c010bf64                _ZN8keyboard14KeyboardDriver12updateStatusENS_15VirtualKeyEventE
                0x00000000c010bff0                _ZN8keyboard14KeyboardDriver9popBufferEv
                0x00000000c010c06c                _ZN8keyboard14KeyboardDriver7addCodeEh
                0x00000000c010c0e2                _ZN8keyboard14KeyboardDriver10clearCodesEv
                0x00000000c010c0fe                _ZN8keyboard14KeyboardDriver10pushBufferENS_15VirtualKeyEventE
                0x00000000c010c14a                _ZN8keyboard14KeyboardDriver28convertMakeScancodeToKeycodeEv
                0x00000000c010c18e                _ZN8keyboard14KeyboardDriver29convertBreakScancodeToKeycodeEv
 *fill*         0x00000000c010c1df        0x1 
 .text._ZN6DeviceC2Ev
                0x00000000c010c1e0       0x10 build/keyboard.o
                0x00000000c010c1e0                _ZN6DeviceC1Ev
                0x00000000c010c1e0                _ZN6DeviceC2Ev
 .text._ZN11BlockDeviceC2Ev
                0x00000000c010c1f0       0x22 build/keyboard.o
                0x00000000c010c1f0                _ZN11BlockDeviceC1Ev
                0x00000000c010c1f0                _ZN11BlockDeviceC2Ev
 .text          0x00000000c010c212      0x276 build/serial.o
                0x00000000c010c212                _ZN6SerialC2Et
                0x00000000c010c212                _ZN6SerialC1Et
                0x00000000c010c25c                _ZN6SerialD2Ev
                0x00000000c010c25c                _ZN6SerialD1Ev
                0x00000000c010c27e                _ZN6SerialD0Ev
                0x00000000c010c2a2                _ZNK6Serial13getDeviceTypeEv
                0x00000000c010c2ac                _ZNK6Serial13getDeviceInfoEPv
                0x00000000c010c2c4                _ZN6Serial5writeEPKvm
                0x00000000c010c310                _ZN6Serial5writeEPKv
                0x00000000c010c34e                _ZN6Serial5writeEc
                0x00000000c010c380                _ZN6Serial4readEPvm
                0x00000000c010c39e                _ZN6Serial4seekEii
                0x00000000c010c3bc                _ZN6Serial13writeRegisterEhh
                0x00000000c010c3f2                _ZN6Serial12readRegisterEh
                0x00000000c010c41c                _Z17initSerialDevicesv
 .text          0x00000000c010c488      0x2e9 build/memorystream.o
                0x00000000c010c488                _ZN12MemoryStreamC1EPvm
                0x00000000c010c488                _ZN12MemoryStreamC2EPvm
                0x00000000c010c4c6                _ZN12MemoryStreamD2Ev
                0x00000000c010c4c6                _ZN12MemoryStreamD1Ev
                0x00000000c010c504                _ZN12MemoryStreamD0Ev
                0x00000000c010c528                _ZNK12MemoryStream13getDeviceTypeEv
                0x00000000c010c532                _ZNK12MemoryStream13getDeviceInfoEPv
                0x00000000c010c54c                _ZN12MemoryStream5writeEPKvm
                0x00000000c010c5b0                _ZN12MemoryStream5writeEPKv
                0x00000000c010c61a                _ZN12MemoryStream5writeEc
                0x00000000c010c668                _ZN12MemoryStream4readEPvm
                0x00000000c010c6cc                _ZN12MemoryStream4seekEii
 *fill*         0x00000000c010c771        0x1 
 .text          0x00000000c010c772       0x46 build/blockdevice.o
                0x00000000c010c772                _ZN11BlockDeviceD2Ev
                0x00000000c010c772                _ZN11BlockDeviceD1Ev
                0x00000000c010c794                _ZN11BlockDeviceD0Ev
 .text          0x00000000c010c7b8       0x31 build/device.o
                0x00000000c010c7b8                _ZN6DeviceD2Ev
                0x00000000c010c7b8                _ZN6DeviceD1Ev
                0x00000000c010c7c8                _ZN6DeviceD0Ev
 *fill*         0x00000000c010c7e9        0x1 
 .text          0x00000000c010c7ea      0x8f5 build/vga.o
                0x00000000c010c7ea                _ZN9VgaDriverC2Ev
                0x00000000c010c7ea                _ZN9VgaDriverC1Ev
                0x00000000c010c87c                _ZN9VgaDriverD2Ev
                0x00000000c010c87c                _ZN9VgaDriverD1Ev
                0x00000000c010c89e                _ZN9VgaDriverD0Ev
                0x00000000c010c8c2                _ZNK9VgaDriver13getDeviceTypeEv
                0x00000000c010c8cc                _ZNK9VgaDriver13getDeviceInfoEPv
                0x00000000c010c8e4                _ZN9VgaDriver5writeEPKvm
                0x00000000c010c928                _ZN9VgaDriver5writeEPKv
                0x00000000c010c972                _ZN9VgaDriver5writeEc
                0x00000000c010c998                _ZN9VgaDriver4readEPvm
                0x00000000c010c9a2                _ZN9VgaDriver4seekEii
                0x00000000c010cab2                _ZN9VgaDriver13generateEntryEc
                0x00000000c010cb0c                _ZN9VgaDriver12updateCursorEv
                0x00000000c010cb8a                _ZN9VgaDriver16advanceCharacterEv
                0x00000000c010cc06                _ZN9VgaDriver9writeCharEc
                0x00000000c010ccf0                _ZN9VgaDriver7setCharEc
                0x00000000c010cd44                _ZN9VgaDriver7setCharEctt
                0x00000000c010cd9a                _ZN9VgaDriver10writeCharsEPc
                0x00000000c010cdcc                _ZN9VgaDriver5clearEv
                0x00000000c010ce2e                _ZN9VgaDriver9setCursorEtt
                0x00000000c010ceaa                _ZN9VgaDriver8scrollUpEv
                0x00000000c010cf54                _ZN9VgaDriver10scrollDownEv
                0x00000000c010cffe                _ZN9VgaDriver7getCharEv
                0x00000000c010d040                _ZN9VgaDriver7getCharEtt
 *fill*         0x00000000c010d0df        0x1 
 .text          0x00000000c010d0e0      0x719 build/atapiodevice.o
                0x00000000c010d0e0                _ZN3ata12AtaPioDeviceC2EtPti
                0x00000000c010d0e0                _ZN3ata12AtaPioDeviceC1EtPti
                0x00000000c010d11c                _ZN3ata12AtaPioDeviceD1Ev
                0x00000000c010d11c                _ZN3ata12AtaPioDeviceD2Ev
                0x00000000c010d13e                _ZN3ata12AtaPioDeviceD0Ev
                0x00000000c010d162                _ZNK3ata12AtaPioDevice13getDeviceTypeEv
                0x00000000c010d16c                _ZNK3ata12AtaPioDevice13getDeviceInfoEPv
                0x00000000c010d18a                _ZN3ata12AtaPioDevice5writeEPKvm
                0x00000000c010d1a8                _ZN3ata12AtaPioDevice5writeEPKv
                0x00000000c010d1c6                _ZN3ata12AtaPioDevice5writeEc
                0x00000000c010d1ea                _ZN3ata12AtaPioDevice4readEPvm
                0x00000000c010d226                _ZN3ata12AtaPioDevice4seekEii
                0x00000000c010d296                _ZN3ata12AtaPioDevice9getStatusEv
                0x00000000c010d2b0                _ZN3ata12AtaPioDevice5flushEv
                0x00000000c010d2d0                _ZN3ata12AtaPioDevice9prepareRWEmm
                0x00000000c010d382                _ZN3ata12AtaPioDevice16waitBSYUnsetPollEv
                0x00000000c010d3a4                _ZN3ata12AtaPioDevice14waitDRQSetPollEv
                0x00000000c010d3ce                _ZN3ata12AtaPioDevice16waitDRQUnsetPollEv
                0x00000000c010d3f6                _ZN3ata12AtaPioDevice7readPIOEmmPc
                0x00000000c010d536                _ZN3ata12AtaPioDevice8writePIOEmmPKc
                0x00000000c010d648                _ZN3ata12AtaPioDevice4readEmmPc
                0x00000000c010d706                _ZN3ata12AtaPioDevice5writeEmmPKc
                0x00000000c010d7e4                _ZN3ata12AtaPioDevice5toLBAEm
 *fill*         0x00000000c010d7f9        0x1 
 .text          0x00000000c010d7fa      0x46c build/atapacketdevice.o
                0x00000000c010d7fa                _ZN3ata15AtaPacketDeviceC2EtPth
                0x00000000c010d7fa                _ZN3ata15AtaPacketDeviceC1EtPth
                0x00000000c010d840                _ZN3ata15AtaPacketDeviceD2Ev
                0x00000000c010d840                _ZN3ata15AtaPacketDeviceD1Ev
                0x00000000c010d862                _ZN3ata15AtaPacketDeviceD0Ev
                0x00000000c010d886                _ZNK3ata15AtaPacketDevice13getDeviceTypeEv
                0x00000000c010d890                _ZNK3ata15AtaPacketDevice13getDeviceInfoEPv
                0x00000000c010d8ae                _ZN3ata15AtaPacketDevice4readEPvm
                0x00000000c010db88                _ZN3ata15AtaPacketDevice5writeEPKvm
                0x00000000c010dba6                _ZN3ata15AtaPacketDevice5writeEPKv
                0x00000000c010dbc4                _ZN3ata15AtaPacketDevice5writeEc
                0x00000000c010dbe8                _ZN3ata15AtaPacketDevice4seekEii
 .text          0x00000000c010dc66      0x55f build/ata.o
                0x00000000c010dc66                _ZN3ata9AtaDriverC2Ev
                0x00000000c010dc66                _ZN3ata9AtaDriverC1Ev
                0x00000000c010dc9a                _ZN3ata9AtaDriver10initializeEv
                0x00000000c010dcca                _ZN3ata9AtaDriver27disableScanDefaultAddressesEv
                0x00000000c010dcd8                _ZN3ata9AtaDriver5resetEt
                0x00000000c010dd24                _ZN3ata9AtaDriver12selectDeviceEti
                0x00000000c010ddf8                _ZN3ata9AtaDriver12detectDeviceEti
                0x00000000c010e06a                _ZN3ata9AtaDriver11waitForBusyEt
                0x00000000c010e09e                _ZN3ata9AtaDriver18waitForDataOrErrorEt
                0x00000000c010e0ee                _ZN3ata9AtaDriver16waitForInterruptEt
                0x00000000c010e134                _ZN3ata9AtaDriver18clearInterruptFlagEv
                0x00000000c010e140                _ZN3ata9AtaDriver15notifyInterruptEv
                0x00000000c010e14c                _ZN3ata9AtaDriver4grabEv
                0x00000000c010e168                _ZN3ata9AtaDriver7releaseEv
 *fill*         0x00000000c010e1c5        0x1 
 .text          0x00000000c010e1c6      0x4b8 build/atadevice.o
                0x00000000c010e1c6                _ZN3ata9AtaDeviceC1EtPti
                0x00000000c010e1c6                _ZN3ata9AtaDeviceC2EtPti
                0x00000000c010e352                _ZN3ata9AtaDeviceD1Ev
                0x00000000c010e352                _ZN3ata9AtaDeviceD2Ev
                0x00000000c010e3a2                _ZN3ata9AtaDeviceD0Ev
                0x00000000c010e3c6                _ZN3ata9AtaDevice7getNameEv
                0x00000000c010e3d2                _ZN3ata9AtaDevice8readNameEv
                0x00000000c010e492                _ZN3ata9AtaDevice13supportsLBA48Ev
                0x00000000c010e4b2                _ZN3ata9AtaDevice8getDriveEv
                0x00000000c010e4c2                _ZN3ata9AtaDevice12selectDeviceEv
                0x00000000c010e4f2                _ZN3ata9AtaDevice4outBEth
                0x00000000c010e52c                _ZN3ata9AtaDevice4outWEtt
                0x00000000c010e564                _ZN3ata9AtaDevice4outLEtj
                0x00000000c010e596                _ZN3ata9AtaDevice5outSWEtPKvm
                0x00000000c010e5c8                _ZN3ata9AtaDevice3inBEt
                0x00000000c010e5f4                _ZN3ata9AtaDevice3inWEt
                0x00000000c010e620                _ZN3ata9AtaDevice3inLEt
                0x00000000c010e64c                _ZN3ata9AtaDevice4inSWEtPvm
 .text          0x00000000c010e67e      0x154 build/pciide.o
                0x00000000c010e67e                _ZN6PCIIDEC2Ehhh
                0x00000000c010e67e                _ZN6PCIIDEC1Ehhh
                0x00000000c010e70e                _ZN6PCIIDED2Ev
                0x00000000c010e70e                _ZN6PCIIDED1Ev
                0x00000000c010e730                _ZN6PCIIDED0Ev
                0x00000000c010e754                _ZN6PCIIDE14getBaseAddressEi
                0x00000000c010e792                _ZN6PCIIDE21getControlBaseAddressEi
 .text          0x00000000c010e7d2      0x4e2 build/pci.o
                0x00000000c010e7d2                _ZN3PCI7getNameEtt
                0x00000000c010e838                _ZN3PCI13formatAddressEhhhh
                0x00000000c010e8a6                _ZN3PCI14configReadLongEhhhh
                0x00000000c010e912                _ZN3PCI14configReadWordEhhhh
                0x00000000c010e971                _ZN3PCI14configReadByteEhhhh
                0x00000000c010e9cf                _ZN3PCI15configWriteLongEhhhhj
                0x00000000c010ea39                _ZN3PCI15configWriteWordEhhhht
                0x00000000c010eab5                _ZN3PCI15configWriteByteEhhhhh
                0x00000000c010eb30                _ZN3PCI9hasDeviceEhhh
                0x00000000c010eb6f                _ZN3PCI4initEv
 .text          0x00000000c010ecb4      0x469 build/pcidevice.o
                0x00000000c010ecb4                _ZN9PCIDeviceC2Ehhh
                0x00000000c010ecb4                _ZN9PCIDeviceC1Ehhh
                0x00000000c010ee9c                _ZN9PCIDeviceD2Ev
                0x00000000c010ee9c                _ZN9PCIDeviceD1Ev
                0x00000000c010eebe                _ZN9PCIDeviceD0Ev
                0x00000000c010eee2                _ZN9PCIDevice14configReadLongEh
                0x00000000c010ef22                _ZN9PCIDevice14configReadWordEh
                0x00000000c010ef62                _ZN9PCIDevice14configReadByteEh
                0x00000000c010efa2                _ZN9PCIDevice15configWriteLongEhj
                0x00000000c010efea                _ZN9PCIDevice15configWriteWordEht
                0x00000000c010f03e                _ZN9PCIDevice15configWriteByteEhh
                0x00000000c010f090                _ZNK9PCIDevice13getDeviceTypeEv
                0x00000000c010f09a                _ZNK9PCIDevice13getDeviceInfoEPv
                0x00000000c010f0b4                _ZN9PCIDevice10writeIOBAREij
                0x00000000c010f0ec                _ZN9PCIDevice9readIOBAREi
 *fill*         0x00000000c010f11d        0x1 
 .text          0x00000000c010f11e      0x628 build/BucketAlloc.o
                0x00000000c010f11e                _ZN11BucketAllocC2Ev
                0x00000000c010f11e                _ZN11BucketAllocC1Ev
                0x00000000c010f13c                _ZN11BucketAlloc4initEPvm
                0x00000000c010f1c0                _ZN11BucketAlloc6mallocEm
                0x00000000c010f2fe                _ZN11BucketAlloc12mallocOneTryEm
                0x00000000c010f3ec                _ZN11BucketAlloc16insertIntoBucketEPm
                0x00000000c010f42a                _ZN11BucketAlloc7reallocEPvm
                0x00000000c010f496                _ZN11BucketAlloc4freeEPv
                0x00000000c010f4f4                _ZN11BucketAlloc6callocEmm
                0x00000000c010f512                _ZN11BucketAlloc12mergeOneAreaEPvS0_
                0x00000000c010f5e0                _ZN11BucketAlloc5mergeEv
                0x00000000c010f648                _ZN11BucketAlloc21nextHighestPowerOfTwoEm
                0x00000000c010f67e                _ZN11BucketAlloc21nextHighestPowerOfTwoEPv
                0x00000000c010f698                _ZN11BucketAlloc20nextLowestPowerOfTwoEm
                0x00000000c010f6ae                _ZN11BucketAlloc20nextLowestPowerOfTwoEPv
                0x00000000c010f6c2                _ZN11BucketAlloc15printStatisticsEv
 .text          0x00000000c010f746      0x140 build/LinearAlloc.o
                0x00000000c010f746                _ZN11LinearAllocC1Ev
                0x00000000c010f746                _ZN11LinearAllocC2Ev
                0x00000000c010f74c                _ZN11LinearAlloc4initEPvm
                0x00000000c010f764                _ZN11LinearAlloc6mallocEm
                0x00000000c010f7d8                _ZN11LinearAlloc7reallocEPvm
                0x00000000c010f844                _ZN11LinearAlloc4freeEPv
                0x00000000c010f84a                _ZN11LinearAlloc6callocEmm
 .text          0x00000000c010f886      0x82b build/iso9660.o
                0x00000000c010f886                _ZN17Iso9660FileSystemC2EP11BlockDevice
                0x00000000c010f886                _ZN17Iso9660FileSystemC1EP11BlockDevice
                0x00000000c010f8d2                _ZN17Iso9660FileSystemD2Ev
                0x00000000c010f8d2                _ZN17Iso9660FileSystemD1Ev
                0x00000000c010f948                _ZN17Iso9660FileSystem21loadVolumeDescriptorsEv
                0x00000000c010fa36                _ZN17Iso9660FileSystem7getRootEv
                0x00000000c010faba                _ZN17Iso9660FileSystem10readExtendEjj
                0x00000000c010fb46                _ZN15Iso9660DirEntryC1EP11BlockDevicePhjj
                0x00000000c010fb46                _ZN15Iso9660DirEntryC2EP11BlockDevicePhjj
                0x00000000c010fb8c                _ZN15Iso9660DirEntryD2Ev
                0x00000000c010fb8c                _ZN15Iso9660DirEntryD1Ev
                0x00000000c010fbca                _ZN15Iso9660DirEntryD0Ev
                0x00000000c010fbee                _ZN15Iso9660DirEntry5validEv
                0x00000000c010fc04                _ZN15Iso9660DirEntry7advanceEv
                0x00000000c010fc82                _ZN15Iso9660DirEntry4nameEv
                0x00000000c010fd9c                _ZN15Iso9660DirEntry4typeEv
                0x00000000c010fdda                _ZN15Iso9660DirEntry17getSystemUseFieldEhh
                0x00000000c010feb6                _ZN15Iso9660DirEntry7openDirEv
                0x00000000c010ffaa                _ZN15Iso9660DirEntry8openFileEv
                0x00000000c0110094                _ZN15Iso9660DirEntry9createDirESt6string
 *fill*         0x00000000c01100b1        0x1 
 .text._ZN8DirEntryC2Ev
                0x00000000c01100b2       0x10 build/iso9660.o
                0x00000000c01100b2                _ZN8DirEntryC2Ev
                0x00000000c01100b2                _ZN8DirEntryC1Ev
 .text._ZN8DirEntryD2Ev
                0x00000000c01100c2       0x10 build/iso9660.o
                0x00000000c01100c2                _ZN8DirEntryD2Ev
                0x00000000c01100c2                _ZN8DirEntryD1Ev
 .text._ZN8DirEntryD0Ev
                0x00000000c01100d2       0x24 build/iso9660.o
                0x00000000c01100d2                _ZN8DirEntryD0Ev
 .text._ZN10FileSystemC2Ev
                0x00000000c01100f6       0x10 build/iso9660.o
                0x00000000c01100f6                _ZN10FileSystemC1Ev
                0x00000000c01100f6                _ZN10FileSystemC2Ev
 .text._ZNSt6vectorIPhEC2Ev
                0x00000000c0110106       0x23 build/iso9660.o
                0x00000000c0110106                _ZNSt6vectorIPhEC2Ev
                0x00000000c0110106                _ZNSt6vectorIPhEC1Ev
 *fill*         0x00000000c0110129        0x1 
 .text._ZNSt6vectorIPhED2Ev
                0x00000000c011012a       0x44 build/iso9660.o
                0x00000000c011012a                _ZNSt6vectorIPhED1Ev
                0x00000000c011012a                _ZNSt6vectorIPhED2Ev
 .text._ZNKSt6vectorIPhE4sizeEv
                0x00000000c011016e        0xb build/iso9660.o
                0x00000000c011016e                _ZNKSt6vectorIPhE4sizeEv
 *fill*         0x00000000c0110179        0x1 
 .text._ZNSt6vectorIPhEixEm
                0x00000000c011017a       0x12 build/iso9660.o
                0x00000000c011017a                _ZNSt6vectorIPhEixEm
 .text._ZNSt6vectorIPhE9push_backERKS0_
                0x00000000c011018c       0x4b build/iso9660.o
                0x00000000c011018c                _ZNSt6vectorIPhE9push_backERKS0_
 .text._Z8readTypeIjET_Phm
                0x00000000c01101d7        0xf build/iso9660.o
                0x00000000c01101d7                _Z8readTypeIjET_Phm
 .text._ZSt7roundupIjET_S0_S0_
                0x00000000c01101e6       0x34 build/iso9660.o
                0x00000000c01101e6                _ZSt7roundupIjET_S0_S0_
 .text._Z8readTypeIhET_Phm
                0x00000000c011021a       0x10 build/iso9660.o
                0x00000000c011021a                _Z8readTypeIhET_Phm
 .text._ZNSt6vectorIPhE10testExpandEv
                0x00000000c011022a       0x73 build/iso9660.o
                0x00000000c011022a                _ZNSt6vectorIPhE10testExpandEv
 .text          0x00000000c011029d      0x382 build/filesystem.o
                0x00000000c011029d                _ZN5Files9normalizeEPKc
                0x00000000c01104ee                _ZN5Files9normalizeERKSt6string
                0x00000000c0110519                _ZN5Files5splitEPKc
 *fill*         0x00000000c011061f        0x1 
 .text._ZNSt6vectorISt6stringEixEm
                0x00000000c0110620       0x12 build/filesystem.o
                0x00000000c0110620                _ZNSt6vectorISt6stringEixEm
 .text._ZNSt6vectorISt6stringE5eraseEm
                0x00000000c0110632       0x95 build/filesystem.o
                0x00000000c0110632                _ZNSt6vectorISt6stringE5eraseEm
 *fill*         0x00000000c01106c7        0x1 
 .text._ZNSt6vectorISt6stringE9push_backERKS0_
                0x00000000c01106c8       0x53 build/filesystem.o
                0x00000000c01106c8                _ZNSt6vectorISt6stringE9push_backERKS0_
 .text._ZSt4moveIRSt6stringEONSt16remove_referenceIT_E4typeEOS3_
                0x00000000c011071b        0x8 build/filesystem.o
                0x00000000c011071b                _ZSt4moveIRSt6stringEONSt16remove_referenceIT_E4typeEOS3_
 *fill*         0x00000000c0110723        0x1 
 .text          0x00000000c0110724      0x915 build/virtualfilesystem.o
                0x00000000c0110724                _ZN17VirtualFileSystemC2Ev
                0x00000000c0110724                _ZN17VirtualFileSystemC1Ev
                0x00000000c0110796                _ZN17VirtualFileSystemD2Ev
                0x00000000c0110796                _ZN17VirtualFileSystemD1Ev
                0x00000000c01107bc                _ZN17VirtualFileSystem14BindFilesystemESt6stringP10FileSystem
                0x00000000c0110818                _ZN17VirtualFileSystem7getRootEv
                0x00000000c0110848                _ZN17VirtualFileSystem8openFileEPKc
                0x00000000c0110a3c                _ZN17VirtualFileSystem8fromPathEPKc
                0x00000000c0110be0                _ZN15VirtualDirEntryC1EP16VirtualDirectory
                0x00000000c0110be0                _ZN15VirtualDirEntryC2EP16VirtualDirectory
                0x00000000c0110c16                _ZN15VirtualDirEntryD2Ev
                0x00000000c0110c16                _ZN15VirtualDirEntryD1Ev
                0x00000000c0110c38                _ZN15VirtualDirEntryD0Ev
                0x00000000c0110c5c                _ZN15VirtualDirEntry5validEv
                0x00000000c0110cb8                _ZN15VirtualDirEntry7advanceEv
                0x00000000c0110ce4                _ZN15VirtualDirEntry4nameEv
                0x00000000c0110de0                _ZN15VirtualDirEntry4typeEv
                0x00000000c0110dea                _ZN15VirtualDirEntry7openDirEv
                0x00000000c0110ee4                _ZN15VirtualDirEntry8openFileEv
                0x00000000c0110eee                _ZN15VirtualDirEntry9createDirESt6string
                0x00000000c0110f54                _ZN16VirtualDirectory20createChildDirectoryESt6string
                0x00000000c0110fc0                _ZN16VirtualDirectory17getChildDirectoryEPKc
 *fill*         0x00000000c0111039        0x1 
 .text._ZN16VirtualDirectoryC2Ev
                0x00000000c011103a       0x4e build/virtualfilesystem.o
                0x00000000c011103a                _ZN16VirtualDirectoryC1Ev
                0x00000000c011103a                _ZN16VirtualDirectoryC2Ev
 .text._ZN16VirtualDirectoryD2Ev
                0x00000000c0111088       0x4e build/virtualfilesystem.o
                0x00000000c0111088                _ZN16VirtualDirectoryD1Ev
                0x00000000c0111088                _ZN16VirtualDirectoryD2Ev
 .text._ZNSt4pairISt6stringP10FileSystemED2Ev
                0x00000000c01110d6       0x18 build/virtualfilesystem.o
                0x00000000c01110d6                _ZNSt4pairISt6stringP10FileSystemED1Ev
                0x00000000c01110d6                _ZNSt4pairISt6stringP10FileSystemED2Ev
 .text._ZNSt6vectorISt4pairISt6stringP10FileSystemEEC2Ev
                0x00000000c01110ee       0x23 build/virtualfilesystem.o
                0x00000000c01110ee                _ZNSt6vectorISt4pairISt6stringP10FileSystemEEC2Ev
                0x00000000c01110ee                _ZNSt6vectorISt4pairISt6stringP10FileSystemEEC1Ev
 *fill*         0x00000000c0111111        0x1 
 .text._ZNSt6vectorISt4pairISt6stringP10FileSystemEED2Ev
                0x00000000c0111112       0x5d build/virtualfilesystem.o
                0x00000000c0111112                _ZNSt6vectorISt4pairISt6stringP10FileSystemEED1Ev
                0x00000000c0111112                _ZNSt6vectorISt4pairISt6stringP10FileSystemEED2Ev
 *fill*         0x00000000c011116f        0x1 
 .text._ZNSt6vectorIP16VirtualDirectoryEC2Ev
                0x00000000c0111170       0x23 build/virtualfilesystem.o
                0x00000000c0111170                _ZNSt6vectorIP16VirtualDirectoryEC2Ev
                0x00000000c0111170                _ZNSt6vectorIP16VirtualDirectoryEC1Ev
 *fill*         0x00000000c0111193        0x1 
 .text._ZNSt6vectorIP16VirtualDirectoryED2Ev
                0x00000000c0111194       0x44 build/virtualfilesystem.o
                0x00000000c0111194                _ZNSt6vectorIP16VirtualDirectoryED2Ev
                0x00000000c0111194                _ZNSt6vectorIP16VirtualDirectoryED1Ev
 .text._ZNSt6vectorISt4pairISt6stringP11BlockDeviceEEC2Ev
                0x00000000c01111d8       0x23 build/virtualfilesystem.o
                0x00000000c01111d8                _ZNSt6vectorISt4pairISt6stringP11BlockDeviceEEC2Ev
                0x00000000c01111d8                _ZNSt6vectorISt4pairISt6stringP11BlockDeviceEEC1Ev
 *fill*         0x00000000c01111fb        0x1 
 .text._ZNSt4pairISt6stringP11BlockDeviceED2Ev
                0x00000000c01111fc       0x18 build/virtualfilesystem.o
                0x00000000c01111fc                _ZNSt4pairISt6stringP11BlockDeviceED2Ev
                0x00000000c01111fc                _ZNSt4pairISt6stringP11BlockDeviceED1Ev
 .text._ZNSt6vectorISt4pairISt6stringP11BlockDeviceEED2Ev
                0x00000000c0111214       0x5d build/virtualfilesystem.o
                0x00000000c0111214                _ZNSt6vectorISt4pairISt6stringP11BlockDeviceEED1Ev
                0x00000000c0111214                _ZNSt6vectorISt4pairISt6stringP11BlockDeviceEED2Ev
 *fill*         0x00000000c0111271        0x1 
 .text._ZNSt4pairISt6stringP10FileSystemEC2ERKS0_RKS2_
                0x00000000c0111272       0x26 build/virtualfilesystem.o
                0x00000000c0111272                _ZNSt4pairISt6stringP10FileSystemEC1ERKS0_RKS2_
                0x00000000c0111272                _ZNSt4pairISt6stringP10FileSystemEC2ERKS0_RKS2_
 .text._ZNSt4pairISt6stringP10FileSystemEC2ERKS3_
                0x00000000c0111298       0x28 build/virtualfilesystem.o
                0x00000000c0111298                _ZNSt4pairISt6stringP10FileSystemEC2ERKS3_
                0x00000000c0111298                _ZNSt4pairISt6stringP10FileSystemEC1ERKS3_
 .text._ZNSt6vectorISt4pairISt6stringP10FileSystemEE9push_backEOS4_
                0x00000000c01112c0       0x53 build/virtualfilesystem.o
                0x00000000c01112c0                _ZNSt6vectorISt4pairISt6stringP10FileSystemEE9push_backEOS4_
 *fill*         0x00000000c0111313        0x1 
 .text._ZNKSt6vectorISt4pairISt6stringP10FileSystemEE4sizeEv
                0x00000000c0111314        0xb build/virtualfilesystem.o
                0x00000000c0111314                _ZNKSt6vectorISt4pairISt6stringP10FileSystemEE4sizeEv
 *fill*         0x00000000c011131f        0x1 
 .text._ZNKSt6vectorIP16VirtualDirectoryE4sizeEv
                0x00000000c0111320        0xb build/virtualfilesystem.o
                0x00000000c0111320                _ZNKSt6vectorIP16VirtualDirectoryE4sizeEv
 *fill*         0x00000000c011132b        0x1 
 .text._ZNKSt6vectorISt4pairISt6stringP11BlockDeviceEE4sizeEv
                0x00000000c011132c        0xb build/virtualfilesystem.o
                0x00000000c011132c                _ZNKSt6vectorISt4pairISt6stringP11BlockDeviceEE4sizeEv
 *fill*         0x00000000c0111337        0x1 
 .text._ZNSt6vectorISt4pairISt6stringP10FileSystemEEixEm
                0x00000000c0111338       0x12 build/virtualfilesystem.o
                0x00000000c0111338                _ZNSt6vectorISt4pairISt6stringP10FileSystemEEixEm
 .text._ZNSt6vectorIP16VirtualDirectoryEixEm
                0x00000000c011134a       0x12 build/virtualfilesystem.o
                0x00000000c011134a                _ZNSt6vectorIP16VirtualDirectoryEixEm
 .text._ZNSt6vectorIP16VirtualDirectoryE9push_backERKS1_
                0x00000000c011135c       0x4b build/virtualfilesystem.o
                0x00000000c011135c                _ZNSt6vectorIP16VirtualDirectoryE9push_backERKS1_
 *fill*         0x00000000c01113a7        0x1 
 .text._ZNSt6vectorISt4pairISt6stringP10FileSystemEE10testExpandEv
                0x00000000c01113a8       0x73 build/virtualfilesystem.o
                0x00000000c01113a8                _ZNSt6vectorISt4pairISt6stringP10FileSystemEE10testExpandEv
 *fill*         0x00000000c011141b        0x1 
 .text._ZNSt6vectorIP16VirtualDirectoryE10testExpandEv
                0x00000000c011141c       0x73 build/virtualfilesystem.o
                0x00000000c011141c                _ZNSt6vectorIP16VirtualDirectoryE10testExpandEv
 .text          0x00000000c011148f       0x76 build/new.o
                0x00000000c011148f                _Znwm
                0x00000000c01114a5                _ZnwmPv
                0x00000000c01114ad                _Znam
                0x00000000c01114c3                _ZnamPv
                0x00000000c01114cb                _ZdlPv
                0x00000000c01114e2                _ZdlPvS_
                0x00000000c01114e8                _ZdaPv
                0x00000000c01114ff                _ZdaPvS_
 .text          0x00000000c0111505        0x0 build/linkedlist.o
 *fill*         0x00000000c0111505        0x1 
 .text          0x00000000c0111506      0x8f8 build/string.o
                0x00000000c0111506                _ZNSt6stringC1Ev
                0x00000000c0111506                _ZNSt6stringC2Ev
                0x00000000c011152c                _ZNSt6stringC1ERKS_
                0x00000000c011152c                _ZNSt6stringC2ERKS_
                0x00000000c0111570                _ZNSt6stringC1EPKc
                0x00000000c0111570                _ZNSt6stringC2EPKc
                0x00000000c01115b2                _ZNSt6stringC1EPKcm
                0x00000000c01115b2                _ZNSt6stringC2EPKcm
                0x00000000c01115f8                _ZNSt6stringC1Emc
                0x00000000c01115f8                _ZNSt6stringC2Emc
                0x00000000c0111652                _ZNSt6stringC2EOS_
                0x00000000c0111652                _ZNSt6stringC1EOS_
                0x00000000c011166c                _ZNSt6stringD2Ev
                0x00000000c011166c                _ZNSt6stringD1Ev
                0x00000000c0111698                _ZNSt6stringaSERKS_
                0x00000000c0111702                _ZNSt6stringaSEPKc
                0x00000000c0111768                _ZNSt6stringaSEc
                0x00000000c01117c6                _ZNSt6stringaSEOS_
                0x00000000c01117ec                _ZNSt6stringixEm
                0x00000000c01117fc                _ZNKSt6stringixEm
                0x00000000c011180b                _ZSteqRKSt6stringS1_
                0x00000000c0111829                _ZSteqRKSt6stringPKc
                0x00000000c0111847                _ZSteqPKcRKSt6string
                0x00000000c0111865                _ZStneRKSt6stringS1_
                0x00000000c0111883                _ZStneRKSt6stringPKc
                0x00000000c01118a1                _ZStnePKcRKSt6string
                0x00000000c01118bf                _ZStplRKSt6stringPKc
                0x00000000c011197d                _ZStplPKcRKSt6string
                0x00000000c0111a44                _ZStplRKSt6stringS1_
                0x00000000c0111a77                _ZStplRKSt6stringc
                0x00000000c0111b17                _ZStplcRKSt6string
                0x00000000c0111bb6                _ZNSt6stringpLEPKc
                0x00000000c0111c48                _ZNSt6stringpLERKS_
                0x00000000c0111c6e                _ZNSt6stringpLEc
                0x00000000c0111cfa                _ZNKSt6string7compareERKS_
                0x00000000c0111d20                _ZNKSt6string7compareEPKc
                0x00000000c0111db6                _ZNKSt6string6lengthEv
                0x00000000c0111dd0                _ZNKSt6string4sizeEv
                0x00000000c0111dea                _ZNKSt6string5c_strEv
                0x00000000c0111df4                _ZNKSt6string4dataEv
 .text._ZSt3minImERKT_S2_S2_
                0x00000000c0111dfe       0x1b build/string.o
                0x00000000c0111dfe                _ZSt3minImERKT_S2_S2_
 *fill*         0x00000000c0111e19        0x1 
 .text          0x00000000c0111e1a      0xc6b build/virtual.o
                0x00000000c0111e1a                _ZN6memory16initializePagingEv
                0x00000000c0112051                _ZN6memory12enablePagingEv
                0x00000000c0112062                _ZN6memory13disablePagingEv
                0x00000000c0112073                _ZN6memory9enablePSEEv
                0x00000000c0112082                _ZN6memory10disablePSEEv
                0x00000000c0112092                _ZN6memory13PageTableItemC2Ev
                0x00000000c0112092                _ZN6memory13PageTableItemC1Ev
                0x00000000c01120a2                _ZN6memory13PageTableItem10setAddressEPv
                0x00000000c01120c8                _ZN6memory13PageTableItem10getAddressEv
                0x00000000c01120d8                _ZN6memory13PageTableItem10enableFlagEj
                0x00000000c01120ee                _ZN6memory13PageTableItem11disableFlagEj
                0x00000000c0112106                _ZN6memory13PageTableItem7getFlagEj
                0x00000000c011211a                _ZN6memory13PageDirectory3useEv
                0x00000000c0112138                _ZN6memory13PageDirectory11forceUpdateEv
                0x00000000c0112146                _ZN6memory13PageDirectory7currentEv
                0x00000000c0112158                _ZN6memory13PageDirectory15bindVirtualPageEPv
                0x00000000c0112220                _ZN6memory13PageDirectory16bindPhysicalPageEPvS1_
                0x00000000c0112300                _ZN6memory13PageDirectory24bindFirstFreeVirtualPageEPv
                0x00000000c01123de                _ZN6memory13PageDirectory25bindFirstFreeVirtualPagesEPvi
                0x00000000c011251e                _ZN6memory13PageDirectory17unbindVirtualPageEPv
                0x00000000c0112620                _ZN6memory13PageDirectory9mapMemoryEPvS1_
                0x00000000c01126bc                _ZN6memory13PageDirectory9mapMemoryEPvS1_m
                0x00000000c011272e                _ZN6memory13PageDirectory13allocateEntryEi
                0x00000000c01127d0                _ZN6memory13PageDirectory9freeEntryEi
                0x00000000c01128e0                _ZN6memory13PageDirectory23getReadableEntryPointerEi
                0x00000000c01128f0                _ZN6memory13PageDirectory23getReadableTablePointerEii
                0x00000000c011290a                _ZN6memory13PageDirectory14invalidatePageEii
                0x00000000c0112932                _ZN6memory13PageDirectory14invalidatePageEPv
                0x00000000c011293e                _ZN6memory13PageDirectory17getVirtualAddressEPv
                0x00000000c01129f8                _ZN6memory13PageDirectory18getPhysicalAddressEPv
 *fill*         0x00000000c0112a85        0x1 
 .text._ZN6memory18PageDirectoryEntryC2Ev
                0x00000000c0112a86       0x18 build/virtual.o
                0x00000000c0112a86                _ZN6memory18PageDirectoryEntryC1Ev
                0x00000000c0112a86                _ZN6memory18PageDirectoryEntryC2Ev
 .text._ZN6memory13PageDirectoryC2Ev
                0x00000000c0112a9e       0x2f build/virtual.o
                0x00000000c0112a9e                _ZN6memory13PageDirectoryC2Ev
                0x00000000c0112a9e                _ZN6memory13PageDirectoryC1Ev
 *fill*         0x00000000c0112acd        0x1 
 .text          0x00000000c0112ace      0x247 build/physical.o
                0x00000000c0112ace                _ZN6memory21PhysicalMemoryManager4initEv
                0x00000000c0112af0                _ZN6memory21PhysicalMemoryManager23registerAvailableMemoryEPvm
                0x00000000c0112b58                _ZN6memory21PhysicalMemoryManager21reservePhysicalMemoryEPvm
                0x00000000c0112bb8                _ZN6memory21PhysicalMemoryManager22allocatePhysicalMemoryEv
                0x00000000c0112c3e                _ZN6memory21PhysicalMemoryManager22allocatePhysicalMemoryEm
                0x00000000c0112cd0                _ZN6memory21PhysicalMemoryManager18freePhysicalMemoryEPv
 .text          0x00000000c0112d15       0x43 build/boot.o
                0x00000000c0112d15                _loader
 .text          0x00000000c0112d58       0xed build/descriptor_asm.o
                0x00000000c0112d58                IDTPtr
                0x00000000c0112d5e                GDTPtr
                0x00000000c0112dcc                initialize_tss
                0x00000000c0112df2                reload_idt
                0x00000000c0112e0e                reloadGdt
                0x00000000c0112e2f                reload_segments
 *fill*         0x00000000c0112e45        0xb 
 .text          0x00000000c0112e50       0x87 build/thread_asm.o
                0x00000000c0112e50                thread_entry
                0x00000000c0112e6a                thread_enter
                0x00000000c0112e7c                thread_finished
                0x00000000c0112e8d                thread_exit
                0x00000000c0112ea8                thread_interrupt
 *fill*         0x00000000c0112ed7        0x9 
 .text          0x00000000c0112ee0       0x41 /usr/lib/gcc/i686-elf/9.2.0/crtend.o
 .text          0x00000000c0112f21        0x0 build/crtn.o
 *fill*         0x00000000c0112f21        0xf 
 .text          0x00000000c0112f30       0x37 /usr/lib/gcc/i686-elf/9.2.0/libgcc.a(_popcountsi2.o)
                0x00000000c0112f30                __popcountsi2
 *fill*         0x00000000c0112f67        0x9 
 .text          0x00000000c0112f70      0x11a /usr/lib/gcc/i686-elf/9.2.0/libgcc.a(_udivdi3.o)
                0x00000000c0112f70                __udivdi3
 .text          0x00000000c011308a       0x27 root//usr/lib/libk.a(strlen.o)
                0x00000000c011308a                strlen
 .text          0x00000000c01130b1       0x49 root//usr/lib/libk.a(strcmp.o)
                0x00000000c01130b1                strcmp
 .text          0x00000000c01130fa       0x5c root//usr/lib/libk.a(memcmp.o)
                0x00000000c01130fa                memcmp
 .text          0x00000000c0113156       0x43 root//usr/lib/libk.a(strcpy.o)
                0x00000000c0113156                strcpy
 .text          0x00000000c0113199       0x41 root//usr/lib/libk.a(memcpy.o)
                0x00000000c0113199                memcpy
 .text          0x00000000c01131da       0x33 root//usr/lib/libk.a(memset.o)
                0x00000000c01131da                memset
 .text          0x00000000c011320d      0x33b root//usr/lib/libk.a(printf.o)
                0x00000000c011320d                _Z13printUnsignedj
                0x00000000c0113296                _Z13printHexLowerj
                0x00000000c0113320                _Z13printHexUpperj
                0x00000000c01133aa                _Z11printSignedi
                0x00000000c01133eb                printf
 .text          0x00000000c0113548        0x0 root//usr/lib/libk.a(stdio.o)
 .text          0x00000000c0113548       0x32 root//usr/lib/libk.a(putchar.o)
                0x00000000c0113548                putchar
 .text          0x00000000c011357a       0x23 root//usr/lib/libk.a(fseek.o)
                0x00000000c011357a                fseek
 .text          0x00000000c011359d       0x1e root//usr/lib/libk.a(realloc.o)
                0x00000000c011359d                realloc
 .text          0x00000000c01135bb       0x1c root//usr/lib/libk.a(free.o)
                0x00000000c01135bb                free
 .text          0x00000000c01135d7       0x1b root//usr/lib/libk.a(malloc.o)
                0x00000000c01135d7                malloc
 *(.rodata)
 .rodata        0x00000000c01135f2        0x1 build/environment.o
 *fill*         0x00000000c01135f3        0x1 
 .rodata        0x00000000c01135f4       0xa5 build/interruptHandlers.o
 .rodata        0x00000000c0113699       0xae build/kernelshell.o
 *fill*         0x00000000c0113747        0x1 
 .rodata        0x00000000c0113748       0xa2 build/acpi.o
 *fill*         0x00000000c01137ea        0x2 
 .rodata        0x00000000c01137ec      0x1c0 build/apic.o
 .rodata        0x00000000c01139ac       0x3c build/devicemanager.o
 .rodata        0x00000000c01139e8       0x54 build/sleep.o
 .rodata        0x00000000c0113a3c      0x219 build/elf.o
 .rodata        0x00000000c0113c55        0x1 build/symbolmap.o
 .rodata        0x00000000c0113c56       0x39 build/cpu.o
 *fill*         0x00000000c0113c8f        0x1 
 .rodata        0x00000000c0113c90      0x2b0 build/main.o
 .rodata        0x00000000c0113f40        0xf build/inputformatter.o
 .rodata        0x00000000c0113f4f        0x9 build/keyboard.o
 .rodata        0x00000000c0113f58       0x6f build/serial.o
 *fill*         0x00000000c0113fc7        0x1 
 .rodata        0x00000000c0113fc8       0x2c build/memorystream.o
 .rodata        0x00000000c0113ff4        0x9 build/vga.o
 .rodata        0x00000000c0113ffd       0x56 build/atapiodevice.o
 *fill*         0x00000000c0114053        0x1 
 .rodata        0x00000000c0114054       0x6a build/atapacketdevice.o
 *fill*         0x00000000c01140be        0x2 
 .rodata        0x00000000c01140c0       0x2c build/atadevice.o
 .rodata        0x00000000c01140ec      0x1e8 build/pci.o
 .rodata        0x00000000c01142d4       0x79 build/pcidevice.o
 .rodata        0x00000000c011434d       0x24 build/BucketAlloc.o
 .rodata        0x00000000c0114371        0xe build/LinearAlloc.o
 *fill*         0x00000000c011437f        0x1 
 .rodata        0x00000000c0114380       0x97 build/iso9660.o
 .rodata        0x00000000c0114417        0x6 build/filesystem.o
 .rodata        0x00000000c011441d        0x4 build/virtualfilesystem.o
 *fill*         0x00000000c0114421        0x3 
 .rodata        0x00000000c0114424       0x84 root//usr/lib/libk.a(printf.o)
                0x00000000c010c4a8                __physreal_diff = (. - REAL_BASE)

.iplt           0x00000000c01144a8        0x0 load address 0x00000000001144a8
 .iplt          0x00000000c01144a8        0x0 build/crti.o

.realmode       0x0000000000008000       0x66 load address 0x00000000001144a8
                0x0000000000008000                __realmode_vma_start = .
                0x00000000c01144a8                __realmode_lma_start = (LOADADDR (.realmode) + 0xc0000000)
 *(.text.realmode)
 .text.realmode
                0x0000000000008000       0x58 build/smp_trampoline.o
                0x0000000000008000                smp_trampoline_entry
                0x0000000000008058                end_smp_trampoline_entry
 *(.data.realmode)
 .data.realmode
                0x0000000000008058        0xe build/smp_trampoline.o
                0x0000000000008058                smp_stack
                0x000000000000805c                smp_page
                0x0000000000008060                smp_gdt_size
                0x0000000000008062                smp_gdt_offset
                0x0000000000008068                . = ALIGN (0x4)
                0x0000000000008068                __realmode_vma_end = .
                0x0000000000000068                __realmode_secsize = (__realmode_vma_end - __realmode_vma_start)
                0x000000000000001a                __realmode_secsize_l = (__realmode_secsize >> 0x2)
                0x00000000c0114510                __realmode_lma_end = ((__realmode_vma_start + __physreal_diff) + __realmode_secsize)
                0x00000000c011c510                . = (. + (__physreal_diff + REAL_BASE))

.data           0x00000000c011d000     0x2004 load address 0x000000000011d000
 *(.data)
 .data          0x00000000c011d000        0x0 build/crti.o
 .data          0x00000000c011d000        0x4 /usr/lib/gcc/i686-elf/9.2.0/crtbegin.o
                0x00000000c011d000                __dso_handle
 .data          0x00000000c011d004        0x0 build/pic.o
 .data          0x00000000c011d004        0x0 build/interrupt.o
 .data          0x00000000c011d004        0x0 build/environment.o
 .data          0x00000000c011d004        0x0 build/interruptHandlers.o
 .data          0x00000000c011d004        0x0 build/gdt.o
 .data          0x00000000c011d004        0x0 build/kernelshell.o
 .data          0x00000000c011d004        0x0 build/acpi.o
 .data          0x00000000c011d004        0x0 build/apic.o
 .data          0x00000000c011d004        0x0 build/devicemanager.o
 .data          0x00000000c011d004        0x0 build/sleep.o
 .data          0x00000000c011d004        0x0 build/abi.o
 .data          0x00000000c011d004        0x0 build/elf.o
 .data          0x00000000c011d004        0x0 build/alloc.o
 .data          0x00000000c011d004        0x0 build/cpuid.o
 .data          0x00000000c011d004        0x0 build/descriptor.o
 .data          0x00000000c011d004        0x0 build/symbolmap.o
 .data          0x00000000c011d004        0x0 build/io.o
 .data          0x00000000c011d004        0x0 build/cpu.o
 .data          0x00000000c011d004        0x0 build/main.o
 .data          0x00000000c011d004        0x0 build/thread.o
 .data          0x00000000c011d004        0x0 build/semaphore.o
 .data          0x00000000c011d004        0x0 build/scheduler.o
 .data          0x00000000c011d004        0x0 build/spinlock.o
 .data          0x00000000c011d004        0x0 build/eventbus.o
 .data          0x00000000c011d004        0x0 build/inputformatter.o
 .data          0x00000000c011d004        0x0 build/rtti.o
 *fill*         0x00000000c011d004       0x1c 
 .data          0x00000000c011d020      0x1ff build/keyboard.o
                0x00000000c011d020                _ZN8keyboard13scanset2_map1E
                0x00000000c011d120                _ZN8keyboard13scanset2_map2E
 .data          0x00000000c011d21f        0x0 build/serial.o
 .data          0x00000000c011d21f        0x0 build/memorystream.o
 .data          0x00000000c011d21f        0x0 build/blockdevice.o
 .data          0x00000000c011d21f        0x0 build/device.o
 *fill*         0x00000000c011d21f        0x1 
 .data          0x00000000c011d220        0x4 build/vga.o
 .data          0x00000000c011d224        0x0 build/atapiodevice.o
 .data          0x00000000c011d224        0x0 build/atapacketdevice.o
 .data          0x00000000c011d224        0x0 build/ata.o
 .data          0x00000000c011d224        0x0 build/atadevice.o
 .data          0x00000000c011d224        0x0 build/pciide.o
 *fill*         0x00000000c011d224       0x1c 
 .data          0x00000000c011d240       0x7c build/pci.o
                0x00000000c011d240                pci_device_names
                0x00000000c011d2b8                unknown_device
 .data          0x00000000c011d2bc        0x0 build/pcidevice.o
 .data          0x00000000c011d2bc        0x0 build/BucketAlloc.o
 .data          0x00000000c011d2bc        0x0 build/LinearAlloc.o
 .data          0x00000000c011d2bc        0x0 build/iso9660.o
 .data          0x00000000c011d2bc        0x0 build/filesystem.o
 .data          0x00000000c011d2bc        0x0 build/virtualfilesystem.o
 .data          0x00000000c011d2bc        0x0 build/new.o
 .data          0x00000000c011d2bc        0x0 build/linkedlist.o
 .data          0x00000000c011d2bc        0x0 build/string.o
 .data          0x00000000c011d2bc        0x0 build/virtual.o
 .data          0x00000000c011d2bc        0x0 build/physical.o
 *fill*         0x00000000c011d2bc      0xd44 
 .data          0x00000000c011e000     0x1000 build/boot.o
 .data          0x00000000c011f000        0x0 build/descriptor_asm.o
 .data          0x00000000c011f000        0x0 /usr/lib/gcc/i686-elf/9.2.0/crtend.o
 .data          0x00000000c011f000        0x0 build/crtn.o
 .data          0x00000000c011f000        0x0 /usr/lib/gcc/i686-elf/9.2.0/libgcc.a(_popcountsi2.o)
 .data          0x00000000c011f000        0x0 /usr/lib/gcc/i686-elf/9.2.0/libgcc.a(_udivdi3.o)
 .data          0x00000000c011f000        0x0 root//usr/lib/libk.a(strlen.o)
 .data          0x00000000c011f000        0x0 root//usr/lib/libk.a(strcmp.o)
 .data          0x00000000c011f000        0x0 root//usr/lib/libk.a(memcmp.o)
 .data          0x00000000c011f000        0x0 root//usr/lib/libk.a(strcpy.o)
 .data          0x00000000c011f000        0x0 root//usr/lib/libk.a(memcpy.o)
 .data          0x00000000c011f000        0x0 root//usr/lib/libk.a(memset.o)
 .data          0x00000000c011f000        0x0 root//usr/lib/libk.a(printf.o)
 .data          0x00000000c011f000        0x4 root//usr/lib/libk.a(stdio.o)
                0x00000000c011f000                stdout
 .data          0x00000000c011f004        0x0 root//usr/lib/libk.a(putchar.o)
 .data          0x00000000c011f004        0x0 root//usr/lib/libk.a(fseek.o)
 .data          0x00000000c011f004        0x0 root//usr/lib/libk.a(realloc.o)
 .data          0x00000000c011f004        0x0 root//usr/lib/libk.a(free.o)
 .data          0x00000000c011f004        0x0 root//usr/lib/libk.a(malloc.o)

.got            0x00000000c011f004        0x0 load address 0x000000000011f004
 .got           0x00000000c011f004        0x0 build/crti.o

.got.plt        0x00000000c011f004        0x0 load address 0x000000000011f004
 .got.plt       0x00000000c011f004        0x0 build/crti.o

.igot.plt       0x00000000c011f004        0x0 load address 0x000000000011f004
 .igot.plt      0x00000000c011f004        0x0 build/crti.o

.ctors          0x00000000c011f004       0x2c load address 0x000000000011f004
 .ctors         0x00000000c011f004        0x4 /usr/lib/gcc/i686-elf/9.2.0/crtbegin.o
 .ctors         0x00000000c011f008        0x4 build/interrupt.o
 .ctors         0x00000000c011f00c        0x4 build/gdt.o
 .ctors         0x00000000c011f010        0x4 build/apic.o
 .ctors         0x00000000c011f014        0x4 build/devicemanager.o
 .ctors         0x00000000c011f018        0x4 build/alloc.o
 .ctors         0x00000000c011f01c        0x4 build/thread.o
 .ctors         0x00000000c011f020        0x4 build/vga.o
 .ctors         0x00000000c011f024        0x4 build/ata.o
 .ctors         0x00000000c011f028        0x4 build/virtual.o
 .ctors         0x00000000c011f02c        0x4 /usr/lib/gcc/i686-elf/9.2.0/crtend.o

.dtors          0x00000000c011f030        0x8 load address 0x000000000011f030
 .dtors         0x00000000c011f030        0x4 /usr/lib/gcc/i686-elf/9.2.0/crtbegin.o
 .dtors         0x00000000c011f034        0x4 /usr/lib/gcc/i686-elf/9.2.0/crtend.o
                0x00000000c011f034                __DTOR_END__

.tm_clone_table
                0x00000000c011f038        0x0 load address 0x000000000011f038
 .tm_clone_table
                0x00000000c011f038        0x0 /usr/lib/gcc/i686-elf/9.2.0/crtbegin.o
 .tm_clone_table
                0x00000000c011f038        0x0 /usr/lib/gcc/i686-elf/9.2.0/crtend.o

.eh_frame       0x00000000c0120000     0x553c load address 0x0000000000120000
 *(.eh_frame*)
 .eh_frame      0x00000000c0120000        0x0 /usr/lib/gcc/i686-elf/9.2.0/crtbegin.o
 .eh_frame      0x00000000c0120000       0xd8 build/pic.o
 .eh_frame      0x00000000c01200d8      0x2bc build/interrupt.o
                                        0x2d4 (size before relaxing)
 .eh_frame      0x00000000c0120394      0x288 build/environment.o
                                        0x2a0 (size before relaxing)
 .eh_frame      0x00000000c012061c       0xc0 build/interruptHandlers.o
                                         0xd8 (size before relaxing)
 .eh_frame      0x00000000c01206dc      0x108 build/gdt.o
                                        0x120 (size before relaxing)
 .eh_frame      0x00000000c01207e4      0x4a8 build/kernelshell.o
                                        0x4c0 (size before relaxing)
 .eh_frame      0x00000000c0120c8c       0x80 build/acpi.o
                                         0x98 (size before relaxing)
 .eh_frame      0x00000000c0120d0c      0x348 build/apic.o
                                        0x360 (size before relaxing)
 .eh_frame      0x00000000c0121054      0x220 build/devicemanager.o
                                        0x238 (size before relaxing)
 .eh_frame      0x00000000c0121274       0xac build/sleep.o
                                         0xc4 (size before relaxing)
 .eh_frame      0x00000000c0121320       0x40 build/abi.o
                                         0x58 (size before relaxing)
 .eh_frame      0x00000000c0121360      0x144 build/elf.o
                                        0x15c (size before relaxing)
 .eh_frame      0x00000000c01214a4       0x40 build/alloc.o
                                         0x58 (size before relaxing)
 .eh_frame      0x00000000c01214e4       0x24 build/cpuid.o
                                         0x3c (size before relaxing)
 .eh_frame      0x00000000c0121508      0x128 build/symbolmap.o
                                        0x160 (size before relaxing)
 .eh_frame      0x00000000c0121630      0x110 build/io.o
                                        0x128 (size before relaxing)
 .eh_frame      0x00000000c0121740       0x7c build/cpu.o
                                         0x94 (size before relaxing)
 .eh_frame      0x00000000c01217bc      0x140 build/main.o
                                        0x1b8 (size before relaxing)
 .eh_frame      0x00000000c01218fc      0x280 build/thread.o
                                        0x298 (size before relaxing)
 .eh_frame      0x00000000c0121b7c       0x80 build/semaphore.o
                                         0x98 (size before relaxing)
 .eh_frame      0x00000000c0121bfc      0x140 build/scheduler.o
                                        0x158 (size before relaxing)
 .eh_frame      0x00000000c0121d3c       0x80 build/spinlock.o
                                         0x98 (size before relaxing)
 .eh_frame      0x00000000c0121dbc      0x394 build/eventbus.o
                                        0x42c (size before relaxing)
 .eh_frame      0x00000000c0122150      0x3e0 build/inputformatter.o
                                        0x3f8 (size before relaxing)
 .eh_frame      0x00000000c0122530       0x20 build/rtti.o
                                         0x38 (size before relaxing)
 .eh_frame      0x00000000c0122550      0x430 build/keyboard.o
                                        0x448 (size before relaxing)
 .eh_frame      0x00000000c0122980      0x1a8 build/serial.o
                                        0x200 (size before relaxing)
 .eh_frame      0x00000000c0122b28      0x148 build/memorystream.o
                                        0x1a0 (size before relaxing)
 .eh_frame      0x00000000c0122c70       0x40 build/blockdevice.o
                                         0x58 (size before relaxing)
 .eh_frame      0x00000000c0122cb0       0x40 build/device.o
                                         0x58 (size before relaxing)
 .eh_frame      0x00000000c0122cf0      0x348 build/vga.o
                                        0x3a0 (size before relaxing)
 .eh_frame      0x00000000c0123038      0x2a0 build/atapiodevice.o
                                        0x2b8 (size before relaxing)
 .eh_frame      0x00000000c01232d8      0x144 build/atapacketdevice.o
                                        0x15c (size before relaxing)
 .eh_frame      0x00000000c012341c      0x1e4 build/ata.o
                                        0x1fc (size before relaxing)
 .eh_frame      0x00000000c0123600      0x210 build/atadevice.o
                                        0x268 (size before relaxing)
 .eh_frame      0x00000000c0123810       0xa4 build/pciide.o
                                         0xbc (size before relaxing)
 .eh_frame      0x00000000c01238b4      0x170 build/pci.o
                                        0x188 (size before relaxing)
 .eh_frame      0x00000000c0123a24      0x1d0 build/pcidevice.o
                                        0x208 (size before relaxing)
 .eh_frame      0x00000000c0123bf4      0x1e4 build/BucketAlloc.o
                                        0x1fc (size before relaxing)
 .eh_frame      0x00000000c0123dd8       0xc0 build/LinearAlloc.o
                                         0xd8 (size before relaxing)
 .eh_frame      0x00000000c0123e98      0x3bc build/iso9660.o
                                        0x3d4 (size before relaxing)
 .eh_frame      0x00000000c0124254       0xe4 build/filesystem.o
                                        0x17c (size before relaxing)
 .eh_frame      0x00000000c0124338      0x52c build/virtualfilesystem.o
                                        0x5c4 (size before relaxing)
 .eh_frame      0x00000000c0124864      0x100 build/new.o
                                        0x118 (size before relaxing)
 .eh_frame      0x00000000c0124964      0x448 build/string.o
                                        0x460 (size before relaxing)
 .eh_frame      0x00000000c0124dac      0x428 build/virtual.o
                                        0x440 (size before relaxing)
 .eh_frame      0x00000000c01251d4       0xe8 build/physical.o
                                        0x100 (size before relaxing)
 .eh_frame      0x00000000c01252bc        0x0 /usr/lib/gcc/i686-elf/9.2.0/crtend.o
                                          0x4 (size before relaxing)
 .eh_frame      0x00000000c01252bc       0x14 /usr/lib/gcc/i686-elf/9.2.0/libgcc.a(_popcountsi2.o)
                                         0x2c (size before relaxing)
 .eh_frame      0x00000000c01252d0       0x6c /usr/lib/gcc/i686-elf/9.2.0/libgcc.a(_udivdi3.o)
                                         0x84 (size before relaxing)
 .eh_frame      0x00000000c012533c       0x20 root//usr/lib/libk.a(strlen.o)
                                         0x38 (size before relaxing)
 .eh_frame      0x00000000c012535c       0x20 root//usr/lib/libk.a(strcmp.o)
                                         0x38 (size before relaxing)
 .eh_frame      0x00000000c012537c       0x20 root//usr/lib/libk.a(memcmp.o)
                                         0x38 (size before relaxing)
 .eh_frame      0x00000000c012539c       0x20 root//usr/lib/libk.a(strcpy.o)
                                         0x38 (size before relaxing)
 .eh_frame      0x00000000c01253bc       0x20 root//usr/lib/libk.a(memcpy.o)
                                         0x38 (size before relaxing)
 .eh_frame      0x00000000c01253dc       0x20 root//usr/lib/libk.a(memset.o)
                                         0x38 (size before relaxing)
 .eh_frame      0x00000000c01253fc       0xa0 root//usr/lib/libk.a(printf.o)
                                         0xb8 (size before relaxing)
 .eh_frame      0x00000000c012549c       0x20 root//usr/lib/libk.a(putchar.o)
                                         0x38 (size before relaxing)
 .eh_frame      0x00000000c01254bc       0x20 root//usr/lib/libk.a(fseek.o)
                                         0x38 (size before relaxing)
 .eh_frame      0x00000000c01254dc       0x20 root//usr/lib/libk.a(realloc.o)
                                         0x38 (size before relaxing)
 .eh_frame      0x00000000c01254fc       0x20 root//usr/lib/libk.a(free.o)
                                         0x38 (size before relaxing)
 .eh_frame      0x00000000c012551c       0x20 root//usr/lib/libk.a(malloc.o)
                                         0x38 (size before relaxing)

.rodata._ZTVN8keyboard14KeyboardDriverE
                0x00000000c012553c       0x2c load address 0x000000000012553c
 .rodata._ZTVN8keyboard14KeyboardDriverE
                0x00000000c012553c       0x2c build/keyboard.o
                0x00000000c012553c                _ZTVN8keyboard14KeyboardDriverE

.rodata._ZTV6Serial
                0x00000000c0125568       0x2c load address 0x0000000000125568
 .rodata._ZTV6Serial
                0x00000000c0125568       0x2c build/serial.o
                0x00000000c0125568                _ZTV6Serial

.rodata._ZTV12MemoryStream
                0x00000000c0125594       0x2c load address 0x0000000000125594
 .rodata._ZTV12MemoryStream
                0x00000000c0125594       0x2c build/memorystream.o
                0x00000000c0125594                _ZTV12MemoryStream

.rodata._ZTV11BlockDevice
                0x00000000c01255c0       0x2c load address 0x00000000001255c0
 .rodata._ZTV11BlockDevice
                0x00000000c01255c0       0x2c build/blockdevice.o
                0x00000000c01255c0                _ZTV11BlockDevice

.rodata._ZTV6Device
                0x00000000c01255ec       0x18 load address 0x00000000001255ec
 .rodata._ZTV6Device
                0x00000000c01255ec       0x18 build/device.o
                0x00000000c01255ec                _ZTV6Device

.rodata._ZTV9VgaDriver
                0x00000000c0125604       0x2c load address 0x0000000000125604
 .rodata._ZTV9VgaDriver
                0x00000000c0125604       0x2c build/vga.o
                0x00000000c0125604                _ZTV9VgaDriver

.rodata._ZTVN3ata12AtaPioDeviceE
                0x00000000c0125630       0x2c load address 0x0000000000125630
 .rodata._ZTVN3ata12AtaPioDeviceE
                0x00000000c0125630       0x2c build/atapiodevice.o
                0x00000000c0125630                _ZTVN3ata12AtaPioDeviceE

.rodata._ZTVN3ata15AtaPacketDeviceE
                0x00000000c012565c       0x2c load address 0x000000000012565c
 .rodata._ZTVN3ata15AtaPacketDeviceE
                0x00000000c012565c       0x2c build/atapacketdevice.o
                0x00000000c012565c                _ZTVN3ata15AtaPacketDeviceE

.rodata._ZTVN3ata9AtaDeviceE
                0x00000000c0125688       0x2c load address 0x0000000000125688
 .rodata._ZTVN3ata9AtaDeviceE
                0x00000000c0125688       0x2c build/atadevice.o
                0x00000000c0125688                _ZTVN3ata9AtaDeviceE

.rodata._ZTV6PCIIDE
                0x00000000c01256b4       0x18 load address 0x00000000001256b4
 .rodata._ZTV6PCIIDE
                0x00000000c01256b4       0x18 build/pciide.o
                0x00000000c01256b4                _ZTV6PCIIDE

.rodata._ZTV9PCIDevice
                0x00000000c01256cc       0x18 load address 0x00000000001256cc
 .rodata._ZTV9PCIDevice
                0x00000000c01256cc       0x18 build/pcidevice.o
                0x00000000c01256cc                _ZTV9PCIDevice

.rodata._ZTV15Iso9660DirEntry
                0x00000000c01256e4       0x2c load address 0x00000000001256e4
 .rodata._ZTV15Iso9660DirEntry
                0x00000000c01256e4       0x2c build/iso9660.o
                0x00000000c01256e4                _ZTV15Iso9660DirEntry

.rodata._ZTV17Iso9660FileSystem
                0x00000000c0125710        0xc load address 0x0000000000125710
 .rodata._ZTV17Iso9660FileSystem
                0x00000000c0125710        0xc build/iso9660.o
                0x00000000c0125710                _ZTV17Iso9660FileSystem

.rodata._ZTV10FileSystem
                0x00000000c012571c        0xc load address 0x000000000012571c
 .rodata._ZTV10FileSystem
                0x00000000c012571c        0xc build/iso9660.o
                0x00000000c012571c                _ZTV10FileSystem

.rodata._ZTV8DirEntry
                0x00000000c0125728       0x2c load address 0x0000000000125728
 .rodata._ZTV8DirEntry
                0x00000000c0125728       0x2c build/iso9660.o
                0x00000000c0125728                _ZTV8DirEntry

.rodata._ZTV15VirtualDirEntry
                0x00000000c0125754       0x2c load address 0x0000000000125754
 .rodata._ZTV15VirtualDirEntry
                0x00000000c0125754       0x2c build/virtualfilesystem.o
                0x00000000c0125754                _ZTV15VirtualDirEntry

.rodata._ZTV17VirtualFileSystem
                0x00000000c0125780        0xc load address 0x0000000000125780
 .rodata._ZTV17VirtualFileSystem
                0x00000000c0125780        0xc build/virtualfilesystem.o
                0x00000000c0125780                _ZTV17VirtualFileSystem

.rel.dyn        0x00000000c012578c        0x0 load address 0x000000000012578c
 .rel.got       0x00000000c012578c        0x0 build/crti.o
 .rel.iplt      0x00000000c012578c        0x0 build/crti.o
 .rel.text      0x00000000c012578c        0x0 build/crti.o
 .rel.text._ZNSt13unordered_mapISt6stringS0_EC2Ev
                0x00000000c012578c        0x0 build/crti.o
 .rel.text._ZNSt13unordered_mapISt6stringS0_ED2Ev
                0x00000000c012578c        0x0 build/crti.o
 .rel.text._ZNSt13unordered_mapISt6stringS0_EaSERKS1_
                0x00000000c012578c        0x0 build/crti.o
 .rel.text._ZNSt13unordered_mapISt6stringS0_EixERKS0_
                0x00000000c012578c        0x0 build/crti.o
 .rel.text._ZNSt13unordered_mapISt6stringS0_E5eraseERKS0_
                0x00000000c012578c        0x0 build/crti.o
 .rel.text._ZNSt13unordered_mapISt6stringS0_E5countERKS0_
                0x00000000c012578c        0x0 build/crti.o
 .rel.text._ZNSt13unordered_mapISt6stringS0_E8copyFromERKS1_
                0x00000000c012578c        0x0 build/crti.o
 .rel.text._ZNSt13unordered_mapISt6stringS0_E12increaseSizeEv
                0x00000000c012578c        0x0 build/crti.o
 .rel.text._ZNSt13unordered_mapISt6stringS0_E3putERKS0_S3_
                0x00000000c012578c        0x0 build/crti.o
 .rel.text._ZNSt6vectorISt4pairIPKcPFvP11KernelShellPS_ISt6stringEEEE9push_backEOSA_
                0x00000000c012578c        0x0 build/crti.o
 .rel.text._ZNK9threading6Thread20stackSizeOfArgumentsIPSt6vectorISt6stringEJEEEjT_DpT0_
                0x00000000c012578c        0x0 build/crti.o
 .rel.text._ZNK9threading6Thread20stackSizeOfArgumentsIP11KernelShellJPSt6vectorISt6stringEEEEjT_DpT0_
                0x00000000c012578c        0x0 build/crti.o
 .rel.text._ZN9threading6ThreadC2IJP11KernelShellPSt6vectorISt6stringEEEEPFvDpT_ES9_
                0x00000000c012578c        0x0 build/crti.o
 .rel.text._ZNSt6vectorISt6stringE9push_backEOS0_
                0x00000000c012578c        0x0 build/crti.o
 .rel.text._ZN9threading6Thread19initializeArgumentsIP11KernelShellJPSt6vectorISt6stringEEEEvjT_DpT0_
                0x00000000c012578c        0x0 build/crti.o
 .rel.text._ZNK9threading6Thread20stackSizeOfArgumentsIP11KernelShellJEEEjT_DpT0_
                0x00000000c012578c        0x0 build/crti.o
 .rel.text._ZN9threading6Thread19initializeArgumentsIPSt6vectorISt6stringEJEEEvjT_DpT0_
                0x00000000c012578c        0x0 build/crti.o
 .rel.text._ZNSt6vectorIPN4acpi14MADTLocalEntryEE9push_backEOS2_
                0x00000000c012578c        0x0 build/crti.o
 .rel.text._ZNSt6vectorIPN4acpi11MADTIoEntryEE9push_backERKS2_
                0x00000000c012578c        0x0 build/crti.o
 .rel.text._ZNSt6vectorIP6DeviceE9push_backERKS1_
                0x00000000c012578c        0x0 build/crti.o
 .rel.text._ZNSt6vectorIP6DeviceE5eraseEm
                0x00000000c012578c        0x0 build/crti.o
 .rel.text._ZNSt13unordered_mapISt6string14SymbolMapEntryEC2Ev
                0x00000000c012578c        0x0 build/crti.o
 .rel.text._ZNSt13unordered_mapISt6string14SymbolMapEntryEixERKS0_
                0x00000000c012578c        0x0 build/crti.o
 .rel.text._ZNSt13unordered_mapISt6string14SymbolMapEntryE5countERKS0_
                0x00000000c012578c        0x0 build/crti.o
 .rel.text._ZNSt13unordered_mapISt6string14SymbolMapEntryE12increaseSizeEv
                0x00000000c012578c        0x0 build/crti.o
 .rel.text._ZNSt13unordered_mapISt6string14SymbolMapEntryE3putERKS0_RKS1_
                0x00000000c012578c        0x0 build/crti.o
 .rel.text._ZNSt6vectorIPN9threading6ThreadEE9push_backERKS2_
                0x00000000c012578c        0x0 build/crti.o
 .rel.text._ZNSt6vectorIPN9threading6ThreadEE5eraseEm
                0x00000000c012578c        0x0 build/crti.o
 .rel.text._ZNK9threading6Thread20stackSizeOfArgumentsIPvJEEEjT_DpT0_
                0x00000000c012578c        0x0 build/crti.o
 .rel.text._ZNK9threading6Thread20stackSizeOfArgumentsIjJPvEEEjT_DpT0_
                0x00000000c012578c        0x0 build/crti.o
 .rel.text._ZNK9threading6Thread20stackSizeOfArgumentsIjJjPvEEEjT_DpT0_
                0x00000000c012578c        0x0 build/crti.o
 .rel.text._ZNK9threading6Thread20stackSizeOfArgumentsIjJjjPvEEEjT_DpT0_
                0x00000000c012578c        0x0 build/crti.o
 .rel.text._ZNK9threading6Thread20stackSizeOfArgumentsIjJjjjPvEEEjT_DpT0_
                0x00000000c012578c        0x0 build/crti.o
 .rel.text._ZNK9threading6Thread20stackSizeOfArgumentsIP8EventBusJjjjjPvEEEjT_DpT0_
                0x00000000c012578c        0x0 build/crti.o
 .rel.text._ZNK9threading6Thread20stackSizeOfArgumentsIM8EventBusFvjjjjPvEJPS2_jjjjS3_EEEjT_DpT0_
                0x00000000c012578c        0x0 build/crti.o
 .rel.text._ZN9threading6ThreadC2I8EventBusJjjjjPvEEEMT_FvDpT0_EPS4_S6_
                0x00000000c012578c        0x0 build/crti.o
 .rel.text._ZN9threading6Thread19initializeArgumentsIM8EventBusFvjjjjPvEJPS2_jjjjS3_EEEvjT_DpT0_
                0x00000000c012578c        0x0 build/crti.o
 .rel.text._ZNK9threading6Thread20stackSizeOfArgumentsIM8EventBusFvjjjjPvEJEEEjT_DpT0_
                0x00000000c012578c        0x0 build/crti.o
 .rel.text._ZN9threading6Thread19initializeArgumentsIP8EventBusJjjjjPvEEEvjT_DpT0_
                0x00000000c012578c        0x0 build/crti.o
 .rel.text._ZNK9threading6Thread20stackSizeOfArgumentsIP8EventBusJEEEjT_DpT0_
                0x00000000c012578c        0x0 build/crti.o
 .rel.text._ZN9threading6Thread19initializeArgumentsIjJjjjPvEEEvjT_DpT0_
                0x00000000c012578c        0x0 build/crti.o
 .rel.text._ZNK9threading6Thread20stackSizeOfArgumentsIjJEEEjT_DpT0_
                0x00000000c012578c        0x0 build/crti.o
 .rel.text._ZN9threading6Thread19initializeArgumentsIjJjjPvEEEvjT_DpT0_
                0x00000000c012578c        0x0 build/crti.o
 .rel.text._ZN9threading6Thread19initializeArgumentsIjJjPvEEEvjT_DpT0_
                0x00000000c012578c        0x0 build/crti.o
 .rel.text._ZN9threading6Thread19initializeArgumentsIjJPvEEEvjT_DpT0_
                0x00000000c012578c        0x0 build/crti.o
 .rel.text._ZN9threading6Thread19initializeArgumentsIPvJEEEvjT_DpT0_
                0x00000000c012578c        0x0 build/crti.o
 .rel.text._ZNSt6vectorIS_IcEE9push_backEOS0_
                0x00000000c012578c        0x0 build/crti.o
 .rel.text._ZNSt6vectorIcE9push_backEOc
                0x00000000c012578c        0x0 build/crti.o
 .rel.text._ZNSt6vectorIcE6insertEmRKc
                0x00000000c012578c        0x0 build/crti.o
 .rel.text._ZNSt6vectorIcE9push_backERKc
                0x00000000c012578c        0x0 build/crti.o
 .rel.text._ZNSt6vectorIcE5eraseEm
                0x00000000c012578c        0x0 build/crti.o
 .rel.text._ZN6DeviceC2Ev
                0x00000000c012578c        0x0 build/crti.o
 .rel.text._ZN11BlockDeviceC2Ev
                0x00000000c012578c        0x0 build/crti.o
 .rel.text._ZN8DirEntryC2Ev
                0x00000000c012578c        0x0 build/crti.o
 .rel.text._ZN8DirEntryD2Ev
                0x00000000c012578c        0x0 build/crti.o
 .rel.text._ZN8DirEntryD0Ev
                0x00000000c012578c        0x0 build/crti.o
 .rel.text._ZN10FileSystemC2Ev
                0x00000000c012578c        0x0 build/crti.o
 .rel.text._ZNSt6vectorIPhE9push_backERKS0_
                0x00000000c012578c        0x0 build/crti.o
 .rel.text._ZNSt6vectorISt6stringE5eraseEm
                0x00000000c012578c        0x0 build/crti.o
 .rel.text._ZNSt6vectorISt6stringE9push_backERKS0_
                0x00000000c012578c        0x0 build/crti.o
 .rel.text._ZN16VirtualDirectoryC2Ev
                0x00000000c012578c        0x0 build/crti.o
 .rel.text._ZN16VirtualDirectoryD2Ev
                0x00000000c012578c        0x0 build/crti.o
 .rel.text._ZNSt6vectorISt4pairISt6stringP10FileSystemEED2Ev
                0x00000000c012578c        0x0 build/crti.o
 .rel.text._ZNSt6vectorISt4pairISt6stringP11BlockDeviceEED2Ev
                0x00000000c012578c        0x0 build/crti.o
 .rel.text._ZNSt6vectorISt4pairISt6stringP10FileSystemEE9push_backEOS4_
                0x00000000c012578c        0x0 build/crti.o
 .rel.text._ZNSt6vectorIP16VirtualDirectoryE9push_backERKS1_
                0x00000000c012578c        0x0 build/crti.o
 .rel.text._ZN6memory13PageDirectoryC2Ev
                0x00000000c012578c        0x0 build/crti.o

.bss            0x00000000c0126000    0x2afff load address 0x0000000000126000
 *(COMMON)
 *(.bss)
 .bss           0x00000000c0126000        0x0 build/crti.o
 .bss           0x00000000c0126000       0x20 /usr/lib/gcc/i686-elf/9.2.0/crtbegin.o
 .bss           0x00000000c0126020        0x0 build/pic.o
 .bss           0x00000000c0126020      0xc04 build/interrupt.o
                0x00000000c0126020                idt
 .bss           0x00000000c0126c24        0x0 build/environment.o
 .bss           0x00000000c0126c24        0x0 build/interruptHandlers.o
 *fill*         0x00000000c0126c24       0x1c 
 .bss           0x00000000c0126c40      0x7fa build/gdt.o
 .bss           0x00000000c012743a        0x0 build/kernelshell.o
 *fill*         0x00000000c012743a        0x2 
 .bss           0x00000000c012743c        0x8 build/acpi.o
                0x00000000c012743c                _ZN4acpi4rsdpE
                0x00000000c0127440                _ZN4acpi4rsdtE
 *fill*         0x00000000c0127444        0x4 
 .bss           0x00000000c0127448       0x2e build/apic.o
                0x00000000c0127448                _ZN4apic9registersE
                0x00000000c012744c                _ZN4apic7ioApicsE
                0x00000000c0127458                _ZN4apic10processorsE
                0x00000000c0127468                _ZN4apic12busFrequencyE
                0x00000000c0127470                _ZN4apic11_entrypointE
                0x00000000c0127474                _ZN4apic8_enabledE
                0x00000000c0127475                _ZN4apic9_cpuReadyE
 *fill*         0x00000000c0127476        0xa 
 .bss           0x00000000c0127480       0x3c build/devicemanager.o
                0x00000000c0127480                deviceManager
 .bss           0x00000000c01274bc        0x0 build/sleep.o
 .bss           0x00000000c01274bc        0x0 build/abi.o
 .bss           0x00000000c01274bc        0x0 build/elf.o
 *fill*         0x00000000c01274bc        0x4 
 .bss           0x00000000c01274c0       0x88 build/alloc.o
                0x00000000c01274c0                kernelAllocator
 .bss           0x00000000c0127548        0x0 build/cpuid.o
 .bss           0x00000000c0127548        0x0 build/descriptor.o
 .bss           0x00000000c0127548        0x0 build/symbolmap.o
 .bss           0x00000000c0127548        0x0 build/io.o
 .bss           0x00000000c0127548        0x0 build/cpu.o
 .bss           0x00000000c0127548        0x0 build/main.o
 *fill*         0x00000000c0127548       0x18 
 .bss           0x00000000c0127560       0xa0 build/thread.o
                0x00000000c0127560                _ZN9threading12pidGeneratorE
                0x00000000c0127580                parent_stack_pointers
                0x00000000c01275c0                running_thread
 .bss           0x00000000c0127600        0x0 build/semaphore.o
 .bss           0x00000000c0127600        0x4 build/scheduler.o
                0x00000000c0127600                _ZN9threading9schedulerE
 .bss           0x00000000c0127604        0x0 build/spinlock.o
 .bss           0x00000000c0127604        0x0 build/eventbus.o
 .bss           0x00000000c0127604        0x0 build/inputformatter.o
 .bss           0x00000000c0127604        0x4 build/rtti.o
 .bss           0x00000000c0127608        0x0 build/keyboard.o
 .bss           0x00000000c0127608        0x0 build/serial.o
 .bss           0x00000000c0127608        0x0 build/memorystream.o
 .bss           0x00000000c0127608        0x0 build/blockdevice.o
 .bss           0x00000000c0127608        0x0 build/device.o
 .bss           0x00000000c0127608       0x10 build/vga.o
                0x00000000c0127608                vgaDriver
 .bss           0x00000000c0127618        0x0 build/atapiodevice.o
 .bss           0x00000000c0127618        0x0 build/atapacketdevice.o
 .bss           0x00000000c0127618       0x10 build/ata.o
                0x00000000c0127618                _ZN3ata6driverE
 .bss           0x00000000c0127628        0x0 build/atadevice.o
 .bss           0x00000000c0127628        0x0 build/pciide.o
 .bss           0x00000000c0127628        0x0 build/pci.o
 .bss           0x00000000c0127628        0x0 build/pcidevice.o
 .bss           0x00000000c0127628        0x0 build/BucketAlloc.o
 .bss           0x00000000c0127628        0x0 build/LinearAlloc.o
 .bss           0x00000000c0127628        0x0 build/iso9660.o
 .bss           0x00000000c0127628        0x0 build/filesystem.o
 .bss           0x00000000c0127628        0x4 build/virtualfilesystem.o
                0x00000000c0127628                vfs
 .bss           0x00000000c012762c        0x0 build/new.o
 .bss           0x00000000c012762c        0x0 build/linkedlist.o
 .bss           0x00000000c012762c        0x0 build/string.o
 *fill*         0x00000000c012762c      0x9d4 
 .bss           0x00000000c0128000     0x1000 build/virtual.o
                0x00000000c0128000                _ZN6memory19kernelPageDirectoryE
 .bss           0x00000000c0129000    0x1ffff build/physical.o
                0x00000000c0129000                _ZN6memory21physicalMemoryManagerE
 .bss           0x00000000c0148fff        0x0 build/boot.o
 .bss           0x00000000c0148fff        0x0 build/descriptor_asm.o
 .bss           0x00000000c0148fff        0x0 /usr/lib/gcc/i686-elf/9.2.0/crtend.o
 .bss           0x00000000c0148fff        0x0 build/crtn.o
 .bss           0x00000000c0148fff        0x0 /usr/lib/gcc/i686-elf/9.2.0/libgcc.a(_popcountsi2.o)
 .bss           0x00000000c0148fff        0x0 /usr/lib/gcc/i686-elf/9.2.0/libgcc.a(_udivdi3.o)
 .bss           0x00000000c0148fff        0x0 root//usr/lib/libk.a(strlen.o)
 .bss           0x00000000c0148fff        0x0 root//usr/lib/libk.a(strcmp.o)
 .bss           0x00000000c0148fff        0x0 root//usr/lib/libk.a(memcmp.o)
 .bss           0x00000000c0148fff        0x0 root//usr/lib/libk.a(strcpy.o)
 .bss           0x00000000c0148fff        0x0 root//usr/lib/libk.a(memcpy.o)
 .bss           0x00000000c0148fff        0x0 root//usr/lib/libk.a(memset.o)
 .bss           0x00000000c0148fff        0x0 root//usr/lib/libk.a(printf.o)
 .bss           0x00000000c0148fff        0x0 root//usr/lib/libk.a(stdio.o)
 .bss           0x00000000c0148fff        0x0 root//usr/lib/libk.a(putchar.o)
 .bss           0x00000000c0148fff        0x0 root//usr/lib/libk.a(fseek.o)
 .bss           0x00000000c0148fff        0x0 root//usr/lib/libk.a(realloc.o)
 .bss           0x00000000c0148fff        0x0 root//usr/lib/libk.a(free.o)
 .bss           0x00000000c0148fff        0x0 root//usr/lib/libk.a(malloc.o)
 *(.bootstrap_stack)
 .bootstrap_stack
                0x00000000c0148fff     0x4000 build/boot.o
                0x00000000c014cfff                stack_top
 *(.esp0_stack)
 .esp0_stack    0x00000000c014cfff     0x4000 build/boot.o
                0x00000000c0150fff                esp0_top
                0x00000000c0150fff                __KERNEL_END_VIRTUAL = .
                0x0000000000150fff                __KERNEL_END_PHYSICAL = (. - 0xc0000000)

/DISCARD/
 *(.note.gnu.build-id)
 *(.comment)
OUTPUT(build/ollios.bin elf32-i386)

.debug_line     0x0000000000000000     0xb3ef
 .debug_line    0x0000000000000000       0x4c build/crti.o
 .debug_line    0x000000000000004c      0x14a build/pic.o
 .debug_line    0x0000000000000196      0x580 build/interrupt.o
 .debug_line    0x0000000000000716      0x8bc build/environment.o
 .debug_line    0x0000000000000fd2      0x191 build/interruptHandlers.o
 .debug_line    0x0000000000001163       0xfe build/gdt.o
 .debug_line    0x0000000000001261      0xa0f build/kernelshell.o
 .debug_line    0x0000000000001c70      0x200 build/acpi.o
 .debug_line    0x0000000000001e70      0x93f build/apic.o
 .debug_line    0x00000000000027af      0x44c build/devicemanager.o
 .debug_line    0x0000000000002bfb      0x15d build/sleep.o
 .debug_line    0x0000000000002d58       0x41 build/abi.o
 .debug_line    0x0000000000002d99      0x3af build/elf.o
 .debug_line    0x0000000000003148      0x125 build/alloc.o
 .debug_line    0x000000000000326d       0x89 build/cpuid.o
 .debug_line    0x00000000000032f6       0x1d build/descriptor.o
 .debug_line    0x0000000000003313      0x574 build/symbolmap.o
 .debug_line    0x0000000000003887       0xe3 build/io.o
 .debug_line    0x000000000000396a       0xd2 build/cpu.o
 .debug_line    0x0000000000003a3c      0x75b build/main.o
 .debug_line    0x0000000000004197      0x31c build/thread.o
 .debug_line    0x00000000000044b3      0x15a build/semaphore.o
 .debug_line    0x000000000000460d      0x328 build/scheduler.o
 .debug_line    0x0000000000004935       0xb4 build/spinlock.o
 .debug_line    0x00000000000049e9      0x5d4 build/eventbus.o
 .debug_line    0x0000000000004fbd      0x9bc build/inputformatter.o
 .debug_line    0x0000000000005979       0xb8 build/rtti.o
 .debug_line    0x0000000000005a31      0x646 build/keyboard.o
 .debug_line    0x0000000000006077      0x23c build/serial.o
 .debug_line    0x00000000000062b3      0x2b8 build/memorystream.o
 .debug_line    0x000000000000656b       0xfe build/blockdevice.o
 .debug_line    0x0000000000006669       0x92 build/device.o
 .debug_line    0x00000000000066fb      0x4b5 build/vga.o
 .debug_line    0x0000000000006bb0      0x475 build/atapiodevice.o
 .debug_line    0x0000000000007025      0x34b build/atapacketdevice.o
 .debug_line    0x0000000000007370      0x3fc build/ata.o
 .debug_line    0x000000000000776c      0x333 build/atadevice.o
 .debug_line    0x0000000000007a9f      0x1f1 build/pciide.o
 .debug_line    0x0000000000007c90      0x288 build/pci.o
 .debug_line    0x0000000000007f18      0x244 build/pcidevice.o
 .debug_line    0x000000000000815c      0x444 build/BucketAlloc.o
 .debug_line    0x00000000000085a0      0x143 build/LinearAlloc.o
 .debug_line    0x00000000000086e3      0x603 build/iso9660.o
 .debug_line    0x0000000000008ce6      0x415 build/filesystem.o
 .debug_line    0x00000000000090fb      0x7e1 build/virtualfilesystem.o
 .debug_line    0x00000000000098dc       0xff build/new.o
 .debug_line    0x00000000000099db        0x0 build/linkedlist.o
 .debug_line    0x00000000000099db      0x4d5 build/string.o
 .debug_line    0x0000000000009eb0      0x696 build/virtual.o
 .debug_line    0x000000000000a546      0x238 build/physical.o
 .debug_line    0x000000000000a77e       0x51 build/boot.o
 .debug_line    0x000000000000a7cf       0x62 build/descriptor_asm.o
 .debug_line    0x000000000000a831       0x4a build/crtn.o
 .debug_line    0x000000000000a87b       0x84 root//usr/lib/libk.a(strlen.o)
 .debug_line    0x000000000000a8ff       0x7b root//usr/lib/libk.a(strcmp.o)
 .debug_line    0x000000000000a97a       0x9f root//usr/lib/libk.a(memcmp.o)
 .debug_line    0x000000000000aa19       0x90 root//usr/lib/libk.a(strcpy.o)
 .debug_line    0x000000000000aaa9       0xa8 root//usr/lib/libk.a(memcpy.o)
 .debug_line    0x000000000000ab51       0x97 root//usr/lib/libk.a(memset.o)
 .debug_line    0x000000000000abe8      0x1ee root//usr/lib/libk.a(printf.o)
 .debug_line    0x000000000000add6       0xd6 root//usr/lib/libk.a(stdio.o)
 .debug_line    0x000000000000aeac       0xf9 root//usr/lib/libk.a(putchar.o)
 .debug_line    0x000000000000afa5       0xca root//usr/lib/libk.a(fseek.o)
 .debug_line    0x000000000000b06f      0x12c root//usr/lib/libk.a(realloc.o)
 .debug_line    0x000000000000b19b      0x129 root//usr/lib/libk.a(free.o)
 .debug_line    0x000000000000b2c4      0x12b root//usr/lib/libk.a(malloc.o)

.debug_info     0x0000000000000000    0x295cd
 .debug_info    0x0000000000000000       0x22 build/crti.o
 .debug_info    0x0000000000000022      0x1ed build/pic.o
 .debug_info    0x000000000000020f     0x26b4 build/interrupt.o
 .debug_info    0x00000000000028c3      0xe91 build/environment.o
 .debug_info    0x0000000000003754      0x7a7 build/interruptHandlers.o
 .debug_info    0x0000000000003efb      0x2d4 build/gdt.o
 .debug_info    0x00000000000041cf     0x3a9a build/kernelshell.o
 .debug_info    0x0000000000007c69      0x939 build/acpi.o
 .debug_info    0x00000000000085a2     0x1cc8 build/apic.o
 .debug_info    0x000000000000a26a      0xb7b build/devicemanager.o
 .debug_info    0x000000000000ade5      0x4ce build/sleep.o
 .debug_info    0x000000000000b2b3       0x8f build/abi.o
 .debug_info    0x000000000000b342     0x108b build/elf.o
 .debug_info    0x000000000000c3cd      0x404 build/alloc.o
 .debug_info    0x000000000000c7d1       0xe7 build/cpuid.o
 .debug_info    0x000000000000c8b8       0x85 build/descriptor.o
 .debug_info    0x000000000000c93d      0xb9f build/symbolmap.o
 .debug_info    0x000000000000d4dc      0x2c7 build/io.o
 .debug_info    0x000000000000d7a3      0x17e build/cpu.o
 .debug_info    0x000000000000d921     0x3c4e build/main.o
 .debug_info    0x000000000001156f      0xa9d build/thread.o
 .debug_info    0x000000000001200c      0x357 build/semaphore.o
 .debug_info    0x0000000000012363      0xde0 build/scheduler.o
 .debug_info    0x0000000000013143      0x222 build/spinlock.o
 .debug_info    0x0000000000013365     0x2062 build/eventbus.o
 .debug_info    0x00000000000153c7     0x1d0c build/inputformatter.o
 .debug_info    0x00000000000170d3       0xa7 build/rtti.o
 .debug_info    0x000000000001717a     0x1929 build/keyboard.o
 .debug_info    0x0000000000018aa3      0xd05 build/serial.o
 .debug_info    0x00000000000197a8      0x674 build/memorystream.o
 .debug_info    0x0000000000019e1c      0x261 build/blockdevice.o
 .debug_info    0x000000000001a07d      0x1f9 build/device.o
 .debug_info    0x000000000001a276      0xd74 build/vga.o
 .debug_info    0x000000000001afea      0xebc build/atapiodevice.o
 .debug_info    0x000000000001bea6      0x9b5 build/atapacketdevice.o
 .debug_info    0x000000000001c85b      0xdaa build/ata.o
 .debug_info    0x000000000001d605     0x11ce build/atadevice.o
 .debug_info    0x000000000001e7d3      0x6c4 build/pciide.o
 .debug_info    0x000000000001ee97      0xd1e build/pci.o
 .debug_info    0x000000000001fbb5      0x829 build/pcidevice.o
 .debug_info    0x00000000000203de      0xcf7 build/BucketAlloc.o
 .debug_info    0x00000000000210d5      0x394 build/LinearAlloc.o
 .debug_info    0x0000000000021469     0x163f build/iso9660.o
 .debug_info    0x0000000000022aa8      0xbc9 build/filesystem.o
 .debug_info    0x0000000000023671     0x240f build/virtualfilesystem.o
 .debug_info    0x0000000000025a80      0x22b build/new.o
 .debug_info    0x0000000000025cab      0xe91 build/string.o
 .debug_info    0x0000000000026b3c     0x102a build/virtual.o
 .debug_info    0x0000000000027b66      0x3dd build/physical.o
 .debug_info    0x0000000000027f43       0x26 build/boot.o
 .debug_info    0x0000000000027f69       0x26 build/descriptor_asm.o
 .debug_info    0x0000000000027f8f       0x22 build/crtn.o
 .debug_info    0x0000000000027fb1       0xa5 root//usr/lib/libk.a(strlen.o)
 .debug_info    0x0000000000028056       0xa0 root//usr/lib/libk.a(strcmp.o)
 .debug_info    0x00000000000280f6      0x10c root//usr/lib/libk.a(memcmp.o)
 .debug_info    0x0000000000028202       0xb8 root//usr/lib/libk.a(strcpy.o)
 .debug_info    0x00000000000282ba       0xf4 root//usr/lib/libk.a(memcpy.o)
 .debug_info    0x00000000000283ae       0xde root//usr/lib/libk.a(memset.o)
 .debug_info    0x000000000002848c      0x28a root//usr/lib/libk.a(printf.o)
 .debug_info    0x0000000000028716       0xe7 root//usr/lib/libk.a(stdio.o)
 .debug_info    0x00000000000287fd      0x114 root//usr/lib/libk.a(putchar.o)
 .debug_info    0x0000000000028911      0x114 root//usr/lib/libk.a(fseek.o)
 .debug_info    0x0000000000028a25      0x3ee root//usr/lib/libk.a(realloc.o)
 .debug_info    0x0000000000028e13      0x3db root//usr/lib/libk.a(free.o)
 .debug_info    0x00000000000291ee      0x3df root//usr/lib/libk.a(malloc.o)

.debug_abbrev   0x0000000000000000     0x8bc6
 .debug_abbrev  0x0000000000000000       0x12 build/crti.o
 .debug_abbrev  0x0000000000000012      0x106 build/pic.o
 .debug_abbrev  0x0000000000000118      0x3a0 build/interrupt.o
 .debug_abbrev  0x00000000000004b8      0x2a8 build/environment.o
 .debug_abbrev  0x0000000000000760      0x20a build/interruptHandlers.o
 .debug_abbrev  0x000000000000096a      0x18d build/gdt.o
 .debug_abbrev  0x0000000000000af7      0x612 build/kernelshell.o
 .debug_abbrev  0x0000000000001109      0x267 build/acpi.o
 .debug_abbrev  0x0000000000001370      0x535 build/apic.o
 .debug_abbrev  0x00000000000018a5      0x372 build/devicemanager.o
 .debug_abbrev  0x0000000000001c17      0x1fd build/sleep.o
 .debug_abbrev  0x0000000000001e14       0x86 build/abi.o
 .debug_abbrev  0x0000000000001e9a      0x2de build/elf.o
 .debug_abbrev  0x0000000000002178      0x1a9 build/alloc.o
 .debug_abbrev  0x0000000000002321       0x99 build/cpuid.o
 .debug_abbrev  0x00000000000023ba       0x2d build/descriptor.o
 .debug_abbrev  0x00000000000023e7      0x2d9 build/symbolmap.o
 .debug_abbrev  0x00000000000026c0       0xf4 build/io.o
 .debug_abbrev  0x00000000000027b4      0x138 build/cpu.o
 .debug_abbrev  0x00000000000028ec      0x5ab build/main.o
 .debug_abbrev  0x0000000000002e97      0x3e6 build/thread.o
 .debug_abbrev  0x000000000000327d      0x18c build/semaphore.o
 .debug_abbrev  0x0000000000003409      0x375 build/scheduler.o
 .debug_abbrev  0x000000000000377e      0x143 build/spinlock.o
 .debug_abbrev  0x00000000000038c1      0x403 build/eventbus.o
 .debug_abbrev  0x0000000000003cc4      0x3bd build/inputformatter.o
 .debug_abbrev  0x0000000000004081       0x7c build/rtti.o
 .debug_abbrev  0x00000000000040fd      0x4cd build/keyboard.o
 .debug_abbrev  0x00000000000045ca      0x379 build/serial.o
 .debug_abbrev  0x0000000000004943      0x276 build/memorystream.o
 .debug_abbrev  0x0000000000004bb9      0x164 build/blockdevice.o
 .debug_abbrev  0x0000000000004d1d      0x171 build/device.o
 .debug_abbrev  0x0000000000004e8e      0x35a build/vga.o
 .debug_abbrev  0x00000000000051e8      0x32f build/atapiodevice.o
 .debug_abbrev  0x0000000000005517      0x30b build/atapacketdevice.o
 .debug_abbrev  0x0000000000005822      0x2da build/ata.o
 .debug_abbrev  0x0000000000005afc      0x3db build/atadevice.o
 .debug_abbrev  0x0000000000005ed7      0x262 build/pciide.o
 .debug_abbrev  0x0000000000006139      0x29d build/pci.o
 .debug_abbrev  0x00000000000063d6      0x2b7 build/pcidevice.o
 .debug_abbrev  0x000000000000668d      0x2fb build/BucketAlloc.o
 .debug_abbrev  0x0000000000006988      0x199 build/LinearAlloc.o
 .debug_abbrev  0x0000000000006b21      0x462 build/iso9660.o
 .debug_abbrev  0x0000000000006f83      0x304 build/filesystem.o
 .debug_abbrev  0x0000000000007287      0x4b5 build/virtualfilesystem.o
 .debug_abbrev  0x000000000000773c      0x12d build/new.o
 .debug_abbrev  0x0000000000007869      0x294 build/string.o
 .debug_abbrev  0x0000000000007afd      0x39a build/virtual.o
 .debug_abbrev  0x0000000000007e97      0x197 build/physical.o
 .debug_abbrev  0x000000000000802e       0x14 build/boot.o
 .debug_abbrev  0x0000000000008042       0x14 build/descriptor_asm.o
 .debug_abbrev  0x0000000000008056       0x12 build/crtn.o
 .debug_abbrev  0x0000000000008068       0x83 root//usr/lib/libk.a(strlen.o)
 .debug_abbrev  0x00000000000080eb       0x6e root//usr/lib/libk.a(strcmp.o)
 .debug_abbrev  0x0000000000008159       0xbe root//usr/lib/libk.a(memcmp.o)
 .debug_abbrev  0x0000000000008217       0x83 root//usr/lib/libk.a(strcpy.o)
 .debug_abbrev  0x000000000000829a       0xa9 root//usr/lib/libk.a(memcpy.o)
 .debug_abbrev  0x0000000000008343       0xb9 root//usr/lib/libk.a(memset.o)
 .debug_abbrev  0x00000000000083fc      0x11c root//usr/lib/libk.a(printf.o)
 .debug_abbrev  0x0000000000008518       0x8a root//usr/lib/libk.a(stdio.o)
 .debug_abbrev  0x00000000000085a2       0xbb root//usr/lib/libk.a(putchar.o)
 .debug_abbrev  0x000000000000865d       0xaa root//usr/lib/libk.a(fseek.o)
 .debug_abbrev  0x0000000000008707      0x1a1 root//usr/lib/libk.a(realloc.o)
 .debug_abbrev  0x00000000000088a8      0x18e root//usr/lib/libk.a(free.o)
 .debug_abbrev  0x0000000000008a36      0x190 root//usr/lib/libk.a(malloc.o)

.debug_aranges  0x0000000000000000      0xdf8
 .debug_aranges
                0x0000000000000000       0x28 build/crti.o
 .debug_aranges
                0x0000000000000028       0x20 build/pic.o
 .debug_aranges
                0x0000000000000048       0x28 build/interrupt.o
 .debug_aranges
                0x0000000000000070       0x80 build/environment.o
 .debug_aranges
                0x00000000000000f0       0x20 build/interruptHandlers.o
 .debug_aranges
                0x0000000000000110       0x20 build/gdt.o
 .debug_aranges
                0x0000000000000130       0xf0 build/kernelshell.o
 .debug_aranges
                0x0000000000000220       0x20 build/acpi.o
 .debug_aranges
                0x0000000000000240       0x80 build/apic.o
 .debug_aranges
                0x00000000000002c0       0x68 build/devicemanager.o
 .debug_aranges
                0x0000000000000328       0x20 build/sleep.o
 .debug_aranges
                0x0000000000000348       0x20 build/abi.o
 .debug_aranges
                0x0000000000000368       0x20 build/elf.o
 .debug_aranges
                0x0000000000000388       0x20 build/alloc.o
 .debug_aranges
                0x00000000000003a8       0x20 build/cpuid.o
 .debug_aranges
                0x00000000000003c8       0x18 build/descriptor.o
 .debug_aranges
                0x00000000000003e0       0x58 build/symbolmap.o
 .debug_aranges
                0x0000000000000438       0x20 build/io.o
 .debug_aranges
                0x0000000000000458       0x20 build/cpu.o
 .debug_aranges
                0x0000000000000478       0x40 build/main.o
 .debug_aranges
                0x00000000000004b8       0x28 build/thread.o
 .debug_aranges
                0x00000000000004e0       0x20 build/semaphore.o
 .debug_aranges
                0x0000000000000500       0x58 build/scheduler.o
 .debug_aranges
                0x0000000000000558       0x20 build/spinlock.o
 .debug_aranges
                0x0000000000000578       0xf8 build/eventbus.o
 .debug_aranges
                0x0000000000000670       0xc8 build/inputformatter.o
 .debug_aranges
                0x0000000000000738       0x20 build/rtti.o
 .debug_aranges
                0x0000000000000758       0x30 build/keyboard.o
 .debug_aranges
                0x0000000000000788       0x30 build/serial.o
 .debug_aranges
                0x00000000000007b8       0x30 build/memorystream.o
 .debug_aranges
                0x00000000000007e8       0x20 build/blockdevice.o
 .debug_aranges
                0x0000000000000808       0x20 build/device.o
 .debug_aranges
                0x0000000000000828       0x30 build/vga.o
 .debug_aranges
                0x0000000000000858       0x20 build/atapiodevice.o
 .debug_aranges
                0x0000000000000878       0x20 build/atapacketdevice.o
 .debug_aranges
                0x0000000000000898       0x20 build/ata.o
 .debug_aranges
                0x00000000000008b8       0x30 build/atadevice.o
 .debug_aranges
                0x00000000000008e8       0x20 build/pciide.o
 .debug_aranges
                0x0000000000000908       0x20 build/pci.o
 .debug_aranges
                0x0000000000000928       0x28 build/pcidevice.o
 .debug_aranges
                0x0000000000000950       0x20 build/BucketAlloc.o
 .debug_aranges
                0x0000000000000970       0x20 build/LinearAlloc.o
 .debug_aranges
                0x0000000000000990       0x88 build/iso9660.o
 .debug_aranges
                0x0000000000000a18       0x60 build/filesystem.o
 .debug_aranges
                0x0000000000000a78       0xe8 build/virtualfilesystem.o
 .debug_aranges
                0x0000000000000b60       0x20 build/new.o
 .debug_aranges
                0x0000000000000b80       0x28 build/string.o
 .debug_aranges
                0x0000000000000ba8       0x30 build/virtual.o
 .debug_aranges
                0x0000000000000bd8       0x20 build/physical.o
 .debug_aranges
                0x0000000000000bf8       0x20 build/boot.o
 .debug_aranges
                0x0000000000000c18       0x20 build/descriptor_asm.o
 .debug_aranges
                0x0000000000000c38       0x28 build/crtn.o
 .debug_aranges
                0x0000000000000c60       0x20 root//usr/lib/libk.a(strlen.o)
 .debug_aranges
                0x0000000000000c80       0x20 root//usr/lib/libk.a(strcmp.o)
 .debug_aranges
                0x0000000000000ca0       0x20 root//usr/lib/libk.a(memcmp.o)
 .debug_aranges
                0x0000000000000cc0       0x20 root//usr/lib/libk.a(strcpy.o)
 .debug_aranges
                0x0000000000000ce0       0x20 root//usr/lib/libk.a(memcpy.o)
 .debug_aranges
                0x0000000000000d00       0x20 root//usr/lib/libk.a(memset.o)
 .debug_aranges
                0x0000000000000d20       0x20 root//usr/lib/libk.a(printf.o)
 .debug_aranges
                0x0000000000000d40       0x18 root//usr/lib/libk.a(stdio.o)
 .debug_aranges
                0x0000000000000d58       0x20 root//usr/lib/libk.a(putchar.o)
 .debug_aranges
                0x0000000000000d78       0x20 root//usr/lib/libk.a(fseek.o)
 .debug_aranges
                0x0000000000000d98       0x20 root//usr/lib/libk.a(realloc.o)
 .debug_aranges
                0x0000000000000db8       0x20 root//usr/lib/libk.a(free.o)
 .debug_aranges
                0x0000000000000dd8       0x20 root//usr/lib/libk.a(malloc.o)

.debug_str      0x0000000000000000     0xc9a3
 .debug_str     0x0000000000000000       0x37 build/crti.o
 .debug_str     0x0000000000000037      0x1ee build/pic.o
                                        0x23f (size before relaxing)
 .debug_str     0x0000000000000225      0x3a6 build/interrupt.o
                                        0x5b1 (size before relaxing)
 .debug_str     0x00000000000005cb      0x6e4 build/environment.o
                                        0x8bf (size before relaxing)
 .debug_str     0x0000000000000caf      0x53d build/interruptHandlers.o
                                        0x8ed (size before relaxing)
 .debug_str     0x00000000000011ec      0x127 build/gdt.o
                                        0x309 (size before relaxing)
 .debug_str     0x0000000000001313     0x2d9c build/kernelshell.o
                                       0x35a7 (size before relaxing)
 .debug_str     0x00000000000040af      0x96b build/acpi.o
                                        0xb91 (size before relaxing)
 .debug_str     0x0000000000004a1a      0xde6 build/apic.o
                                       0x1c66 (size before relaxing)
 .debug_str     0x0000000000005800      0x106 build/devicemanager.o
                                        0x893 (size before relaxing)
 .debug_str     0x0000000000005906       0x98 build/sleep.o
                                        0x4b6 (size before relaxing)
 .debug_str     0x000000000000599e       0x2f build/abi.o
                                         0xfb (size before relaxing)
 .debug_str     0x00000000000059cd      0x8e2 build/elf.o
                                        0xda0 (size before relaxing)
 .debug_str     0x00000000000062af       0x30 build/alloc.o
                                        0x547 (size before relaxing)
 .debug_str     0x00000000000062df       0x28 build/cpuid.o
                                        0x183 (size before relaxing)
 .debug_str     0x0000000000006307       0x16 build/descriptor.o
                                        0x185 (size before relaxing)
 .debug_str     0x000000000000631d       0x86 build/symbolmap.o
                                        0x88f (size before relaxing)
 .debug_str     0x00000000000063a3       0x78 build/io.o
                                        0x204 (size before relaxing)
 .debug_str     0x000000000000641b       0x79 build/cpu.o
                                        0x1b1 (size before relaxing)
 .debug_str     0x0000000000006494      0x6dd build/main.o
                                       0x3ef8 (size before relaxing)
 .debug_str     0x0000000000006b71      0x1c3 build/thread.o
                                        0x8f6 (size before relaxing)
 .debug_str     0x0000000000006d34       0x3b build/semaphore.o
                                        0x3ad (size before relaxing)
 .debug_str     0x0000000000006d6f       0xe7 build/scheduler.o
                                        0xe3c (size before relaxing)
 .debug_str     0x0000000000006e56       0x39 build/spinlock.o
                                        0x25e (size before relaxing)
 .debug_str     0x0000000000006e8f      0xd44 build/eventbus.o
                                       0x19a5 (size before relaxing)
 .debug_str     0x0000000000007bd3      0x10a build/inputformatter.o
                                       0x135c (size before relaxing)
 .debug_str     0x0000000000007cdd       0x3b build/rtti.o
                                        0x156 (size before relaxing)
 .debug_str     0x0000000000007d18      0x881 build/keyboard.o
                                       0x13c6 (size before relaxing)
 .debug_str     0x0000000000008599      0x1d6 build/serial.o
                                        0x9ca (size before relaxing)
 .debug_str     0x000000000000876f      0x19b build/memorystream.o
                                        0x42d (size before relaxing)
 .debug_str     0x000000000000890a       0xee build/blockdevice.o
                                        0x296 (size before relaxing)
 .debug_str     0x00000000000089f8       0x97 build/device.o
                                        0x279 (size before relaxing)
 .debug_str     0x0000000000008a8f      0x3fc build/vga.o
                                        0x72b (size before relaxing)
 .debug_str     0x0000000000008e8b      0x3f4 build/atapiodevice.o
                                        0xac7 (size before relaxing)
 .debug_str     0x000000000000927f      0x201 build/atapacketdevice.o
                                        0x8bb (size before relaxing)
 .debug_str     0x0000000000009480       0x63 build/ata.o
                                        0xcb3 (size before relaxing)
 .debug_str     0x00000000000094e3      0x3b4 build/atadevice.o
                                        0xc79 (size before relaxing)
 .debug_str     0x0000000000009897      0x12b build/pciide.o
                                        0x72f (size before relaxing)
 .debug_str     0x00000000000099c2      0x226 build/pci.o
                                        0x9bb (size before relaxing)
 .debug_str     0x0000000000009be8      0x300 build/pcidevice.o
                                        0x5bb (size before relaxing)
 .debug_str     0x0000000000009ee8       0x8b build/BucketAlloc.o
                                        0xbc5 (size before relaxing)
 .debug_str     0x0000000000009f73       0xef build/LinearAlloc.o
                                        0x2f3 (size before relaxing)
 .debug_str     0x000000000000a062      0x7bb build/iso9660.o
                                        0xdee (size before relaxing)
 .debug_str     0x000000000000a81d      0x112 build/filesystem.o
                                        0x913 (size before relaxing)
 .debug_str     0x000000000000a92f     0x18a8 build/virtualfilesystem.o
                                       0x1fbd (size before relaxing)
 .debug_str     0x000000000000c1d7       0x99 build/new.o
                                        0x1cb (size before relaxing)
 .debug_str     0x000000000000c270       0x1b build/linkedlist.o
                                         0xd7 (size before relaxing)
 .debug_str     0x000000000000c28b      0x20a build/string.o
                                        0x5c5 (size before relaxing)
 .debug_str     0x000000000000c495      0x220 build/virtual.o
                                        0xc72 (size before relaxing)
 .debug_str     0x000000000000c6b5       0x27 build/physical.o
                                        0x3e5 (size before relaxing)
 .debug_str     0x000000000000c6dc        0xe build/boot.o
                                         0x37 (size before relaxing)
 .debug_str     0x000000000000c6ea       0x18 build/descriptor_asm.o
                                         0x41 (size before relaxing)
 .debug_str     0x000000000000c702        0xe build/crtn.o
                                         0x37 (size before relaxing)
 .debug_str     0x000000000000c710       0xca root//usr/lib/libk.a(strlen.o)
                                        0x128 (size before relaxing)
 .debug_str     0x000000000000c7da       0x21 root//usr/lib/libk.a(strcmp.o)
                                        0x12b (size before relaxing)
 .debug_str     0x000000000000c7fb       0x1c root//usr/lib/libk.a(memcmp.o)
                                        0x140 (size before relaxing)
 .debug_str     0x000000000000c817       0x17 root//usr/lib/libk.a(strcpy.o)
                                        0x13b (size before relaxing)
 .debug_str     0x000000000000c82e       0x1c root//usr/lib/libk.a(memcpy.o)
                                        0x13d (size before relaxing)
 .debug_str     0x000000000000c84a       0x17 root//usr/lib/libk.a(memset.o)
                                        0x13c (size before relaxing)
 .debug_str     0x000000000000c861       0xcb root//usr/lib/libk.a(printf.o)
                                        0x210 (size before relaxing)
 .debug_str     0x000000000000c92c        0xe root//usr/lib/libk.a(stdio.o)
                                        0x1a7 (size before relaxing)
 .debug_str     0x000000000000c93a       0x18 root//usr/lib/libk.a(putchar.o)
                                        0x1bb (size before relaxing)
 .debug_str     0x000000000000c952       0x22 root//usr/lib/libk.a(fseek.o)
                                        0x1ae (size before relaxing)
 .debug_str     0x000000000000c974       0x11 root//usr/lib/libk.a(realloc.o)
                                        0x4e0 (size before relaxing)
 .debug_str     0x000000000000c985        0xe root//usr/lib/libk.a(free.o)
                                        0x4d8 (size before relaxing)
 .debug_str     0x000000000000c993       0x10 root//usr/lib/libk.a(malloc.o)
                                        0x4df (size before relaxing)

.debug_ranges   0x0000000000000000      0x838
 .debug_ranges  0x0000000000000000       0x20 build/crti.o
 .debug_ranges  0x0000000000000020       0x18 build/interrupt.o
 .debug_ranges  0x0000000000000038       0x70 build/environment.o
 .debug_ranges  0x00000000000000a8       0xf8 build/kernelshell.o
 .debug_ranges  0x00000000000001a0       0x70 build/apic.o
 .debug_ranges  0x0000000000000210       0x58 build/devicemanager.o
 .debug_ranges  0x0000000000000268       0x48 build/symbolmap.o
 .debug_ranges  0x00000000000002b0       0x18 build/cpu.o
 .debug_ranges  0x00000000000002c8       0x48 build/main.o
 .debug_ranges  0x0000000000000310       0x18 build/thread.o
 .debug_ranges  0x0000000000000328       0x48 build/scheduler.o
 .debug_ranges  0x0000000000000370       0xe8 build/eventbus.o
 .debug_ranges  0x0000000000000458       0xd0 build/inputformatter.o
 .debug_ranges  0x0000000000000528       0x20 build/keyboard.o
 .debug_ranges  0x0000000000000548       0x20 build/serial.o
 .debug_ranges  0x0000000000000568       0x20 build/memorystream.o
 .debug_ranges  0x0000000000000588       0x20 build/vga.o
 .debug_ranges  0x00000000000005a8       0x20 build/atadevice.o
 .debug_ranges  0x00000000000005c8       0x18 build/pcidevice.o
 .debug_ranges  0x00000000000005e0       0x18 build/BucketAlloc.o
 .debug_ranges  0x00000000000005f8       0x90 build/iso9660.o
 .debug_ranges  0x0000000000000688       0x50 build/filesystem.o
 .debug_ranges  0x00000000000006d8      0x108 build/virtualfilesystem.o
 .debug_ranges  0x00000000000007e0       0x18 build/string.o
 .debug_ranges  0x00000000000007f8       0x20 build/virtual.o
 .debug_ranges  0x0000000000000818       0x20 build/crtn.o

Cross Reference Table

Symbol                                            File
GDTPtr                                            build/descriptor_asm.o
IDTPtr                                            build/descriptor_asm.o
IdtRegisterInterrupts                             build/interrupt.o
                                                  build/main.o
SmpEntryPoint                                     build/apic.o
                                                  build/smp_trampoline.o
_GLOBAL_OFFSET_TABLE_                             build/crti.o
_ITM_deregisterTMCloneTable                       /usr/lib/gcc/i686-elf/9.2.0/crtbegin.o
_ITM_registerTMCloneTable                         /usr/lib/gcc/i686-elf/9.2.0/crtbegin.o
_Z10allocmergeP11KernelShellPSt6vectorISt6stringE build/kernelshell.o
_Z10disableIrqh                                   build/pic.o
_Z10initMemoryP14multiboot_info                   build/main.o
_Z11devicesinfoP11KernelShellPSt6vectorISt6stringE build/kernelshell.o
_Z11printSignedi                                  root//usr/lib/libk.a(printf.o)
_Z12endInterrupth                                 build/pic.o
                                                  build/interruptHandlers.o
                                                  build/interrupt.o
_Z12generateTypev                                 build/rtti.o
_Z13GdtCreateFlatv                                build/gdt.o
                                                  build/main.o
_Z13apicHardSleepm                                build/sleep.o
_Z13clearAllMasksv                                build/pic.o
_Z13intHandlerAtaj                                build/interruptHandlers.o
                                                  build/interrupt.o
_Z13printHexLowerj                                root//usr/lib/libk.a(printf.o)
_Z13printHexUpperj                                root//usr/lib/libk.a(printf.o)
_Z13printUnsignedj                                root//usr/lib/libk.a(printf.o)
_Z14IdtcreateEmptyv                               build/interrupt.o
                                                  build/main.o
_Z16intHandlerWakeupj                             build/interruptHandlers.o
_Z16startup_listenerPvjjjjS_                      build/main.o
_Z16string_to_offsetPKc                           build/symbolmap.o
_Z17initSerialDevicesv                            build/serial.o
_Z18intHandlerSpuriousj                           build/interruptHandlers.o
                                                  build/interrupt.o
_Z19intHandlerPageFaultj                          build/interruptHandlers.o
                                                  build/interrupt.o
_Z19intHandlerUndefinedj                          build/interruptHandlers.o
                                                  build/interrupt.o
_Z24threadingFunctionWrapperI8EventBusJjjjjPvEEvMT_FvDpT0_EPS2_S4_ build/eventbus.o
_Z2lsP11KernelShellPSt6vectorISt6stringE          build/kernelshell.o
_Z36intHandlerGeneralProtectionViolationj         build/interruptHandlers.o
                                                  build/interrupt.o
_Z3catP11KernelShellPSt6vectorISt6stringE         build/kernelshell.o
_Z3inbt                                           build/io.o
                                                  build/atadevice.o
                                                  build/ata.o
                                                  build/atapacketdevice.o
                                                  build/serial.o
                                                  build/keyboard.o
                                                  build/apic.o
                                                  build/pic.o
_Z3inlt                                           build/io.o
                                                  build/pci.o
                                                  build/atadevice.o
_Z3inwt                                           build/io.o
                                                  build/atadevice.o
                                                  build/ata.o
                                                  build/atapacketdevice.o
_Z4helpP11KernelShellPSt6vectorISt6stringE        build/kernelshell.o
_Z4inswtPvm                                       build/io.o
                                                  build/atadevice.o
_Z4outbth                                         build/io.o
                                                  build/pci.o
                                                  build/atadevice.o
                                                  build/ata.o
                                                  build/atapacketdevice.o
                                                  build/vga.o
                                                  build/serial.o
                                                  build/keyboard.o
                                                  build/apic.o
                                                  build/pic.o
_Z4outltj                                         build/io.o
                                                  build/pci.o
_Z4outwtt                                         build/io.o
                                                  build/pci.o
                                                  build/atadevice.o
_Z5cpuidi                                         build/cpuid.o
                                                  build/main.o
                                                  build/apic.o
_Z5outswtPKvm                                     build/io.o
                                                  build/atadevice.o
                                                  build/atapacketdevice.o
_Z5printi                                         build/main.o
_Z5sleepm                                         build/sleep.o
_Z7GdtSizev                                       build/gdt.o
                                                  build/apic.o
_Z7IdtBasev                                       build/interrupt.o
_Z7PicInitv                                       build/pic.o
                                                  build/main.o
_Z7initCpuv                                       build/main.o
_Z7mapPicshh                                      build/pic.o
                                                  build/apic.o
_Z8GdtFlushv                                      build/gdt.o
                                                  build/main.o
_Z8IdtFlushv                                      build/interrupt.o
                                                  build/main.o
                                                  build/apic.o
_Z8IdtLimitv                                      build/interrupt.o
_Z8cpu_mainv                                      build/main.o
_Z8printrecP8DirEntry                             build/main.o
_Z8readTypeIhET_Phm                               build/iso9660.o
_Z8readTypeIjET_Phm                               build/iso9660.o
_Z8sleepIRQjPvS_                                  build/sleep.o
_Z9GdtOffsetv                                     build/gdt.o
                                                  build/apic.o
_Z9allocinfoP11KernelShellPSt6vectorISt6stringE   build/kernelshell.o
_Z9apicSleepm                                     build/sleep.o
_Z9enableIrqh                                     build/pic.o
_Z9hardSleepm                                     build/sleep.o
                                                  build/apic.o
_ZN10FileSystemC1Ev                               build/iso9660.o
                                                  build/virtualfilesystem.o
_ZN10FileSystemC2Ev                               build/iso9660.o
                                                  build/virtualfilesystem.o
_ZN11BlockDeviceC1Ev                              build/keyboard.o
                                                  build/atadevice.o
                                                  build/vga.o
                                                  build/memorystream.o
                                                  build/serial.o
_ZN11BlockDeviceC2Ev                              build/keyboard.o
                                                  build/atadevice.o
                                                  build/vga.o
                                                  build/memorystream.o
                                                  build/serial.o
_ZN11BlockDeviceD0Ev                              build/blockdevice.o
_ZN11BlockDeviceD1Ev                              build/blockdevice.o
_ZN11BlockDeviceD2Ev                              build/blockdevice.o
                                                  build/atadevice.o
                                                  build/vga.o
                                                  build/memorystream.o
                                                  build/serial.o
                                                  build/keyboard.o
_ZN11BucketAlloc12mallocOneTryEm                  build/BucketAlloc.o
_ZN11BucketAlloc12mergeOneAreaEPvS0_              build/BucketAlloc.o
_ZN11BucketAlloc15printStatisticsEv               build/BucketAlloc.o
                                                  build/kernelshell.o
_ZN11BucketAlloc16insertIntoBucketEPm             build/BucketAlloc.o
_ZN11BucketAlloc20nextLowestPowerOfTwoEPv         build/BucketAlloc.o
_ZN11BucketAlloc20nextLowestPowerOfTwoEm          build/BucketAlloc.o
_ZN11BucketAlloc21nextHighestPowerOfTwoEPv        build/BucketAlloc.o
_ZN11BucketAlloc21nextHighestPowerOfTwoEm         build/BucketAlloc.o
_ZN11BucketAlloc4freeEPv                          build/BucketAlloc.o
                                                  root//usr/lib/libk.a(free.o)
_ZN11BucketAlloc4initEPvm                         build/BucketAlloc.o
                                                  build/main.o
_ZN11BucketAlloc5mergeEv                          build/BucketAlloc.o
                                                  build/kernelshell.o
_ZN11BucketAlloc6callocEmm                        build/BucketAlloc.o
_ZN11BucketAlloc6mallocEm                         build/BucketAlloc.o
                                                  root//usr/lib/libk.a(malloc.o)
_ZN11BucketAlloc7reallocEPvm                      build/BucketAlloc.o
                                                  root//usr/lib/libk.a(realloc.o)
_ZN11BucketAllocC1Ev                              build/BucketAlloc.o
                                                  build/alloc.o
_ZN11BucketAllocC2Ev                              build/BucketAlloc.o
_ZN11Environment3getERKSt6string                  build/environment.o
_ZN11Environment3setERKSt6stringS2_               build/environment.o
_ZN11Environment5issetERKSt6string                build/environment.o
_ZN11Environment5unsetERKSt6string                build/environment.o
_ZN11EnvironmentC1ERKS_                           build/environment.o
_ZN11EnvironmentC1Ev                              build/environment.o
_ZN11EnvironmentC2ERKS_                           build/environment.o
_ZN11EnvironmentC2Ev                              build/environment.o
_ZN11EnvironmentD1Ev                              build/environment.o
_ZN11EnvironmentD2Ev                              build/environment.o
_ZN11EnvironmentaSERKS_                           build/environment.o
_ZN11KernelShell12splitCommandESt6string          build/kernelshell.o
_ZN11KernelShell5enterEv                          build/kernelshell.o
                                                  build/main.o
_ZN11KernelShell8commandsEv                       build/kernelshell.o
_ZN11KernelShellC1Ev                              build/kernelshell.o
                                                  build/main.o
_ZN11KernelShellC2Ev                              build/kernelshell.o
_ZN11LinearAlloc4freeEPv                          build/LinearAlloc.o
_ZN11LinearAlloc4initEPvm                         build/LinearAlloc.o
_ZN11LinearAlloc6callocEmm                        build/LinearAlloc.o
_ZN11LinearAlloc6mallocEm                         build/LinearAlloc.o
_ZN11LinearAlloc7reallocEPvm                      build/LinearAlloc.o
_ZN11LinearAllocC1Ev                              build/LinearAlloc.o
_ZN11LinearAllocC2Ev                              build/LinearAlloc.o
_ZN12MemoryStream4readEPvm                        build/memorystream.o
_ZN12MemoryStream4seekEii                         build/memorystream.o
_ZN12MemoryStream5writeEPKv                       build/memorystream.o
_ZN12MemoryStream5writeEPKvm                      build/memorystream.o
_ZN12MemoryStream5writeEc                         build/memorystream.o
_ZN12MemoryStreamC1EPvm                           build/memorystream.o
                                                  build/iso9660.o
_ZN12MemoryStreamC2EPvm                           build/memorystream.o
_ZN12MemoryStreamD0Ev                             build/memorystream.o
_ZN12MemoryStreamD1Ev                             build/memorystream.o
_ZN12MemoryStreamD2Ev                             build/memorystream.o
_ZN13DeviceManager10getDevicesE10DeviceType       build/devicemanager.o
                                                  build/main.o
_ZN13DeviceManager13destroyDeviceEP6Device        build/devicemanager.o
_ZN13DeviceManager9addDeviceEP6Device             build/devicemanager.o
                                                  build/pci.o
                                                  build/ata.o
                                                  build/serial.o
                                                  build/keyboard.o
                                                  build/main.o
_ZN13DeviceManager9getDeviceE10DeviceTypem        build/devicemanager.o
                                                  build/keyboard.o
                                                  build/inputformatter.o
                                                  build/kernelshell.o
_ZN13DeviceManagerC1Ev                            build/devicemanager.o
_ZN13DeviceManagerC2Ev                            build/devicemanager.o
_ZN13DeviceManagerD1Ev                            build/devicemanager.o
_ZN13DeviceManagerD2Ev                            build/devicemanager.o
_ZN13GdtDescriptorC1Ejj                           build/gdt.o
_ZN13GdtDescriptorC1Ev                            build/gdt.o
_ZN13GdtDescriptorC2Ejj                           build/gdt.o
_ZN13GdtDescriptorC2Ev                            build/gdt.o
_ZN13IdtDescriptor9setOffsetEj                    build/interrupt.o
                                                  build/main.o
_ZN13IdtDescriptor9setValuesEjj                   build/interrupt.o
_ZN13IdtDescriptorC1Ejj                           build/interrupt.o
_ZN13IdtDescriptorC1Ev                            build/interrupt.o
_ZN13IdtDescriptorC2Ejj                           build/interrupt.o
_ZN13IdtDescriptorC2Ev                            build/interrupt.o
_ZN14InputFormatter11getNextLineEv                build/inputformatter.o
                                                  build/kernelshell.o
_ZN14InputFormatter11removeCharsEm                build/inputformatter.o
_ZN14InputFormatter12moveCursorByEi               build/inputformatter.o
_ZN14InputFormatter12moveCursorToEi               build/inputformatter.o
_ZN14InputFormatter21handleVirtualKeyEventEN8keyboard15VirtualKeyEventE build/inputformatter.o
                                                  build/kernelshell.o
_ZN14InputFormatter7addCharEh                     build/inputformatter.o
_ZN14InputFormatter8gotoLineEi                    build/inputformatter.o
_ZN14InputFormatterC1Ev                           build/inputformatter.o
                                                  build/kernelshell.o
_ZN14InputFormatterC2Ev                           build/inputformatter.o
_ZN15Iso9660DirEntry17getSystemUseFieldEhh        build/iso9660.o
_ZN15Iso9660DirEntry4nameEv                       build/iso9660.o
_ZN15Iso9660DirEntry4typeEv                       build/iso9660.o
_ZN15Iso9660DirEntry5validEv                      build/iso9660.o
_ZN15Iso9660DirEntry7advanceEv                    build/iso9660.o
_ZN15Iso9660DirEntry7openDirEv                    build/iso9660.o
_ZN15Iso9660DirEntry8openFileEv                   build/iso9660.o
_ZN15Iso9660DirEntry9createDirESt6string          build/iso9660.o
_ZN15Iso9660DirEntryC1EP11BlockDevicePhjj         build/iso9660.o
_ZN15Iso9660DirEntryC2EP11BlockDevicePhjj         build/iso9660.o
_ZN15Iso9660DirEntryD0Ev                          build/iso9660.o
_ZN15Iso9660DirEntryD1Ev                          build/iso9660.o
_ZN15Iso9660DirEntryD2Ev                          build/iso9660.o
_ZN15UniqueGeneratorIjE4nextEv                    build/kernelshell.o
                                                  build/eventbus.o
_ZN15UniqueGeneratorIjEC1Ej                       build/thread.o
_ZN15UniqueGeneratorIjEC2Ej                       build/thread.o
_ZN15VirtualDirEntry4nameEv                       build/virtualfilesystem.o
_ZN15VirtualDirEntry4typeEv                       build/virtualfilesystem.o
_ZN15VirtualDirEntry5validEv                      build/virtualfilesystem.o
_ZN15VirtualDirEntry7advanceEv                    build/virtualfilesystem.o
_ZN15VirtualDirEntry7openDirEv                    build/virtualfilesystem.o
_ZN15VirtualDirEntry8openFileEv                   build/virtualfilesystem.o
_ZN15VirtualDirEntry9createDirESt6string          build/virtualfilesystem.o
_ZN15VirtualDirEntryC1EP16VirtualDirectory        build/virtualfilesystem.o
_ZN15VirtualDirEntryC2EP16VirtualDirectory        build/virtualfilesystem.o
_ZN15VirtualDirEntryD0Ev                          build/virtualfilesystem.o
_ZN15VirtualDirEntryD1Ev                          build/virtualfilesystem.o
_ZN15VirtualDirEntryD2Ev                          build/virtualfilesystem.o
_ZN16VirtualDirectory17getChildDirectoryEPKc      build/virtualfilesystem.o
_ZN16VirtualDirectory20createChildDirectoryESt6string build/virtualfilesystem.o
_ZN16VirtualDirectoryC1Ev                         build/virtualfilesystem.o
_ZN16VirtualDirectoryC2Ev                         build/virtualfilesystem.o
_ZN16VirtualDirectoryD1Ev                         build/virtualfilesystem.o
_ZN16VirtualDirectoryD2Ev                         build/virtualfilesystem.o
_ZN17Iso9660FileSystem10readExtendEjj             build/iso9660.o
_ZN17Iso9660FileSystem21loadVolumeDescriptorsEv   build/iso9660.o
_ZN17Iso9660FileSystem7getRootEv                  build/iso9660.o
_ZN17Iso9660FileSystemC1EP11BlockDevice           build/iso9660.o
                                                  build/main.o
_ZN17Iso9660FileSystemC2EP11BlockDevice           build/iso9660.o
_ZN17Iso9660FileSystemD1Ev                        build/iso9660.o
_ZN17Iso9660FileSystemD2Ev                        build/iso9660.o
_ZN17VirtualFileSystem14BindFilesystemESt6stringP10FileSystem build/virtualfilesystem.o
                                                  build/main.o
_ZN17VirtualFileSystem7getRootEv                  build/virtualfilesystem.o
_ZN17VirtualFileSystem8fromPathEPKc               build/virtualfilesystem.o
                                                  build/kernelshell.o
_ZN17VirtualFileSystem8openFileEPKc               build/virtualfilesystem.o
                                                  build/kernelshell.o
_ZN17VirtualFileSystemC1Ev                        build/virtualfilesystem.o
                                                  build/main.o
_ZN17VirtualFileSystemC2Ev                        build/virtualfilesystem.o
_ZN17VirtualFileSystemD1Ev                        build/virtualfilesystem.o
_ZN17VirtualFileSystemD2Ev                        build/virtualfilesystem.o
_ZN3CPU4haltEv                                    build/cpu.o
_ZN3CPU5panicEPKc                                 build/cpu.o
                                                  build/iso9660.o
                                                  build/atapacketdevice.o
                                                  build/atapiodevice.o
                                                  build/memorystream.o
                                                  build/serial.o
                                                  build/devicemanager.o
                                                  build/interruptHandlers.o
_ZN3CPU5panicEv                                   build/cpu.o
_ZN3CPU9dumpstackEj                               build/cpu.o
_ZN3Idt11setFunctionEjPFvjE                       build/interrupt.o
                                                  build/keyboard.o
_ZN3Idt12callFunctionEj                           build/interrupt.o
_ZN3Idt8addEntryE13IdtDescriptor                  build/interrupt.o
_ZN3Idt8getEntryEj                                build/interrupt.o
                                                  build/main.o
_ZN3Idt8setEntryEj13IdtDescriptor                 build/interrupt.o
_ZN3Idt9getLengthEv                               build/interrupt.o
_ZN3Idt9setLengthEj                               build/interrupt.o
_ZN3IdtC1Ev                                       build/interrupt.o
_ZN3IdtC2Ev                                       build/interrupt.o
_ZN3PCI13formatAddressEhhhh                       build/pci.o
_ZN3PCI14configReadByteEhhhh                      build/pci.o
                                                  build/pcidevice.o
_ZN3PCI14configReadLongEhhhh                      build/pci.o
                                                  build/pcidevice.o
_ZN3PCI14configReadWordEhhhh                      build/pci.o
                                                  build/pcidevice.o
_ZN3PCI15configWriteByteEhhhhh                    build/pci.o
                                                  build/pcidevice.o
_ZN3PCI15configWriteLongEhhhhj                    build/pci.o
                                                  build/pcidevice.o
_ZN3PCI15configWriteWordEhhhht                    build/pci.o
                                                  build/pcidevice.o
_ZN3PCI4initEv                                    build/pci.o
                                                  build/main.o
_ZN3PCI7getNameEtt                                build/pci.o
                                                  build/pcidevice.o
_ZN3PCI9hasDeviceEhhh                             build/pci.o
_ZN3ata12AtaPioDevice14waitDRQSetPollEv           build/atapiodevice.o
_ZN3ata12AtaPioDevice16waitBSYUnsetPollEv         build/atapiodevice.o
_ZN3ata12AtaPioDevice16waitDRQUnsetPollEv         build/atapiodevice.o
_ZN3ata12AtaPioDevice4readEPvm                    build/atapiodevice.o
_ZN3ata12AtaPioDevice4readEmmPc                   build/atapiodevice.o
_ZN3ata12AtaPioDevice4seekEii                     build/atapiodevice.o
_ZN3ata12AtaPioDevice5flushEv                     build/atapiodevice.o
_ZN3ata12AtaPioDevice5toLBAEm                     build/atapiodevice.o
_ZN3ata12AtaPioDevice5writeEPKv                   build/atapiodevice.o
_ZN3ata12AtaPioDevice5writeEPKvm                  build/atapiodevice.o
_ZN3ata12AtaPioDevice5writeEc                     build/atapiodevice.o
_ZN3ata12AtaPioDevice5writeEmmPKc                 build/atapiodevice.o
_ZN3ata12AtaPioDevice7readPIOEmmPc                build/atapiodevice.o
_ZN3ata12AtaPioDevice8writePIOEmmPKc              build/atapiodevice.o
_ZN3ata12AtaPioDevice9getStatusEv                 build/atapiodevice.o
_ZN3ata12AtaPioDevice9prepareRWEmm                build/atapiodevice.o
_ZN3ata12AtaPioDeviceC1EtPti                      build/atapiodevice.o
                                                  build/ata.o
_ZN3ata12AtaPioDeviceC2EtPti                      build/atapiodevice.o
_ZN3ata12AtaPioDeviceD0Ev                         build/atapiodevice.o
_ZN3ata12AtaPioDeviceD1Ev                         build/atapiodevice.o
_ZN3ata12AtaPioDeviceD2Ev                         build/atapiodevice.o
_ZN3ata15AtaPacketDevice4readEPvm                 build/atapacketdevice.o
_ZN3ata15AtaPacketDevice4seekEii                  build/atapacketdevice.o
_ZN3ata15AtaPacketDevice5writeEPKv                build/atapacketdevice.o
_ZN3ata15AtaPacketDevice5writeEPKvm               build/atapacketdevice.o
_ZN3ata15AtaPacketDevice5writeEc                  build/atapacketdevice.o
_ZN3ata15AtaPacketDeviceC1EtPth                   build/atapacketdevice.o
                                                  build/ata.o
_ZN3ata15AtaPacketDeviceC2EtPth                   build/atapacketdevice.o
_ZN3ata15AtaPacketDeviceD0Ev                      build/atapacketdevice.o
_ZN3ata15AtaPacketDeviceD1Ev                      build/atapacketdevice.o
_ZN3ata15AtaPacketDeviceD2Ev                      build/atapacketdevice.o
_ZN3ata6driverE                                   build/ata.o
                                                  build/pciide.o
                                                  build/atadevice.o
                                                  build/atapacketdevice.o
                                                  build/main.o
                                                  build/interruptHandlers.o
_ZN3ata9AtaDevice12selectDeviceEv                 build/atadevice.o
_ZN3ata9AtaDevice13supportsLBA48Ev                build/atadevice.o
_ZN3ata9AtaDevice3inBEt                           build/atadevice.o
                                                  build/atapiodevice.o
_ZN3ata9AtaDevice3inLEt                           build/atadevice.o
_ZN3ata9AtaDevice3inWEt                           build/atadevice.o
                                                  build/atapiodevice.o
_ZN3ata9AtaDevice4inSWEtPvm                       build/atadevice.o
_ZN3ata9AtaDevice4outBEth                         build/atadevice.o
                                                  build/atapiodevice.o
_ZN3ata9AtaDevice4outLEtj                         build/atadevice.o
_ZN3ata9AtaDevice4outWEtt                         build/atadevice.o
                                                  build/atapiodevice.o
_ZN3ata9AtaDevice5outSWEtPKvm                     build/atadevice.o
_ZN3ata9AtaDevice7getNameEv                       build/atadevice.o
_ZN3ata9AtaDevice8getDriveEv                      build/atadevice.o
                                                  build/atapiodevice.o
_ZN3ata9AtaDevice8readNameEv                      build/atadevice.o
_ZN3ata9AtaDeviceC1EtPti                          build/atadevice.o
_ZN3ata9AtaDeviceC2EtPti                          build/atadevice.o
                                                  build/atapacketdevice.o
                                                  build/atapiodevice.o
_ZN3ata9AtaDeviceD0Ev                             build/atadevice.o
_ZN3ata9AtaDeviceD1Ev                             build/atadevice.o
_ZN3ata9AtaDeviceD2Ev                             build/atadevice.o
                                                  build/atapacketdevice.o
                                                  build/atapiodevice.o
_ZN3ata9AtaDriver10initializeEv                   build/ata.o
                                                  build/main.o
_ZN3ata9AtaDriver11waitForBusyEt                  build/ata.o
                                                  build/atapacketdevice.o
_ZN3ata9AtaDriver12detectDeviceEti                build/ata.o
                                                  build/pciide.o
_ZN3ata9AtaDriver12selectDeviceEti                build/ata.o
                                                  build/atadevice.o
                                                  build/atapacketdevice.o
_ZN3ata9AtaDriver15notifyInterruptEv              build/ata.o
                                                  build/interruptHandlers.o
_ZN3ata9AtaDriver16waitForInterruptEt             build/ata.o
                                                  build/atapacketdevice.o
_ZN3ata9AtaDriver18clearInterruptFlagEv           build/ata.o
                                                  build/atapacketdevice.o
_ZN3ata9AtaDriver18waitForDataOrErrorEt           build/ata.o
_ZN3ata9AtaDriver27disableScanDefaultAddressesEv  build/ata.o
_ZN3ata9AtaDriver4grabEv                          build/ata.o
                                                  build/atapacketdevice.o
_ZN3ata9AtaDriver5resetEt                         build/ata.o
_ZN3ata9AtaDriver7releaseEv                       build/ata.o
                                                  build/atapacketdevice.o
_ZN3ata9AtaDriverC1Ev                             build/ata.o
_ZN3ata9AtaDriverC2Ev                             build/ata.o
_ZN3elf14relocate_entryEPNS_10elf_headerEPNS_14section_headerENS_7elf_relER9SymbolMap build/elf.o
_ZN3elf15allocate_nobitsEPNS_14section_headerE    build/elf.o
_ZN3elf16get_section_nameEPNS_10elf_headerEj      build/elf.o
_ZN3elf16get_symbol_valueEPNS_10elf_headerEPNS_14section_headerEjR9SymbolMap build/elf.o
_ZN3elf16relocate_sectionEPNS_10elf_headerEPNS_14section_headerER9SymbolMap build/elf.o
_ZN3elf17find_symbol_valueEPNS_10elf_headerEPNS_14section_headerEPKcR9SymbolMap build/elf.o
_ZN3elf18get_program_headerEPNS_10elf_headerEj    build/elf.o
_ZN3elf18get_section_headerEPNS_10elf_headerEj    build/elf.o
_ZN3elf8dump_elfEPhR9SymbolMap                    build/elf.o
                                                  build/main.o
_ZN4acpi10findHeaderEPKc                          build/acpi.o
                                                  build/apic.o
_ZN4acpi16validateChecksumEPhj                    build/acpi.o
_ZN4acpi4initEv                                   build/acpi.o
                                                  build/main.o
_ZN4acpi4rsdpE                                    build/acpi.o
_ZN4acpi4rsdtE                                    build/acpi.o
_ZN4acpi9mapHeaderEPNS_13ACPISDTHeaderE           build/acpi.o
_ZN4apic10disableIrqEh                            build/apic.o
                                                  build/main.o
_ZN4apic10processorsE                             build/apic.o
_ZN4apic11_entrypointE                            build/apic.o
_ZN4apic12StartAllCpusEPFvvE                      build/apic.o
                                                  build/main.o
_ZN4apic12busFrequencyE                           build/apic.o
                                                  build/main.o
                                                  build/sleep.o
_ZN4apic12endInterruptEj                          build/apic.o
                                                  build/interrupt.o
_ZN4apic12wakeupOneCpuEh                          build/apic.o
_ZN4apic13wakeupAllCpusEv                         build/apic.o
_ZN4apic15wakeupOtherCpusEv                       build/apic.o
_ZN4apic2idEv                                     build/apic.o
                                                  build/thread.o
                                                  build/main.o
_ZN4apic4InitEv                                   build/apic.o
                                                  build/main.o
_ZN4apic7enabledEv                                build/apic.o
                                                  build/sleep.o
                                                  build/interrupt.o
_ZN4apic7ioApicsE                                 build/apic.o
_ZN4apic8_enabledE                                build/apic.o
_ZN4apic8setSleepEhmb                             build/apic.o
                                                  build/main.o
_ZN4apic9_cpuReadyE                               build/apic.o
_ZN4apic9enableIrqEh                              build/apic.o
_ZN4apic9registersE                               build/apic.o
                                                  build/sleep.o
_ZN5Files5splitEPKc                               build/filesystem.o
_ZN5Files9normalizeEPKc                           build/filesystem.o
_ZN5Files9normalizeERKSt6string                   build/filesystem.o
_ZN6DeviceC1Ev                                    build/keyboard.o
                                                  build/pcidevice.o
                                                  build/atadevice.o
                                                  build/vga.o
                                                  build/memorystream.o
                                                  build/serial.o
_ZN6DeviceC2Ev                                    build/keyboard.o
                                                  build/pcidevice.o
                                                  build/atadevice.o
                                                  build/vga.o
                                                  build/memorystream.o
                                                  build/serial.o
_ZN6DeviceD0Ev                                    build/device.o
_ZN6DeviceD1Ev                                    build/device.o
_ZN6DeviceD2Ev                                    build/device.o
                                                  build/pcidevice.o
                                                  build/blockdevice.o
_ZN6PCIIDE14getBaseAddressEi                      build/pciide.o
_ZN6PCIIDE21getControlBaseAddressEi               build/pciide.o
_ZN6PCIIDEC1Ehhh                                  build/pciide.o
                                                  build/pci.o
_ZN6PCIIDEC2Ehhh                                  build/pciide.o
_ZN6PCIIDED0Ev                                    build/pciide.o
_ZN6PCIIDED1Ev                                    build/pciide.o
_ZN6PCIIDED2Ev                                    build/pciide.o
_ZN6Serial12readRegisterEh                        build/serial.o
_ZN6Serial13writeRegisterEhh                      build/serial.o
_ZN6Serial4readEPvm                               build/serial.o
_ZN6Serial4seekEii                                build/serial.o
_ZN6Serial5writeEPKv                              build/serial.o
_ZN6Serial5writeEPKvm                             build/serial.o
_ZN6Serial5writeEc                                build/serial.o
_ZN6SerialC1Et                                    build/serial.o
_ZN6SerialC2Et                                    build/serial.o
_ZN6SerialD0Ev                                    build/serial.o
_ZN6SerialD1Ev                                    build/serial.o
_ZN6SerialD2Ev                                    build/serial.o
_ZN6memory10disablePSEEv                          build/virtual.o
_ZN6memory12enablePagingEv                        build/virtual.o
_ZN6memory13PageDirectory11forceUpdateEv          build/virtual.o
_ZN6memory13PageDirectory13allocateEntryEi        build/virtual.o
_ZN6memory13PageDirectory14invalidatePageEPv      build/virtual.o
_ZN6memory13PageDirectory14invalidatePageEii      build/virtual.o
_ZN6memory13PageDirectory15bindVirtualPageEPv     build/virtual.o
_ZN6memory13PageDirectory16bindPhysicalPageEPvS1_ build/virtual.o
                                                  build/apic.o
                                                  build/acpi.o
_ZN6memory13PageDirectory17getVirtualAddressEPv   build/virtual.o
                                                  build/apic.o
                                                  build/acpi.o
_ZN6memory13PageDirectory17unbindVirtualPageEPv   build/virtual.o
_ZN6memory13PageDirectory18getPhysicalAddressEPv  build/virtual.o
_ZN6memory13PageDirectory23getReadableEntryPointerEi build/virtual.o
_ZN6memory13PageDirectory23getReadableTablePointerEii build/virtual.o
_ZN6memory13PageDirectory24bindFirstFreeVirtualPageEPv build/virtual.o
_ZN6memory13PageDirectory25bindFirstFreeVirtualPagesEPvi build/virtual.o
                                                  build/BucketAlloc.o
_ZN6memory13PageDirectory3useEv                   build/virtual.o
_ZN6memory13PageDirectory7currentEv               build/virtual.o
_ZN6memory13PageDirectory9freeEntryEi             build/virtual.o
_ZN6memory13PageDirectory9mapMemoryEPvS1_         build/virtual.o
_ZN6memory13PageDirectory9mapMemoryEPvS1_m        build/virtual.o
_ZN6memory13PageDirectoryC1Ev                     build/virtual.o
_ZN6memory13PageDirectoryC2Ev                     build/virtual.o
_ZN6memory13PageTableItem10enableFlagEj           build/virtual.o
_ZN6memory13PageTableItem10getAddressEv           build/virtual.o
_ZN6memory13PageTableItem10setAddressEPv          build/virtual.o
_ZN6memory13PageTableItem11disableFlagEj          build/virtual.o
_ZN6memory13PageTableItem7getFlagEj               build/virtual.o
_ZN6memory13PageTableItemC1Ev                     build/virtual.o
_ZN6memory13PageTableItemC2Ev                     build/virtual.o
_ZN6memory13disablePagingEv                       build/virtual.o
_ZN6memory16initializePagingEv                    build/virtual.o
                                                  build/main.o
_ZN6memory18PageDirectoryEntryC1Ev                build/virtual.o
_ZN6memory18PageDirectoryEntryC2Ev                build/virtual.o
_ZN6memory19kernelPageDirectoryE                  build/virtual.o
                                                  build/BucketAlloc.o
                                                  build/apic.o
                                                  build/acpi.o
_ZN6memory21PhysicalMemoryManager18freePhysicalMemoryEPv build/physical.o
                                                  build/virtual.o
_ZN6memory21PhysicalMemoryManager21reservePhysicalMemoryEPvm build/physical.o
                                                  build/virtual.o
                                                  build/apic.o
                                                  build/acpi.o
_ZN6memory21PhysicalMemoryManager22allocatePhysicalMemoryEm build/physical.o
_ZN6memory21PhysicalMemoryManager22allocatePhysicalMemoryEv build/physical.o
                                                  build/virtual.o
_ZN6memory21PhysicalMemoryManager23registerAvailableMemoryEPvm build/physical.o
                                                  build/main.o
_ZN6memory21PhysicalMemoryManager4initEv          build/physical.o
                                                  build/main.o
_ZN6memory21physicalMemoryManagerE                build/physical.o
                                                  build/virtual.o
                                                  build/main.o
                                                  build/apic.o
                                                  build/acpi.o
_ZN6memory9enablePSEEv                            build/virtual.o
_ZN8DirEntryC1Ev                                  build/iso9660.o
                                                  build/virtualfilesystem.o
_ZN8DirEntryC2Ev                                  build/iso9660.o
                                                  build/virtualfilesystem.o
_ZN8DirEntryD0Ev                                  build/iso9660.o
                                                  build/virtualfilesystem.o
_ZN8DirEntryD1Ev                                  build/iso9660.o
                                                  build/virtualfilesystem.o
_ZN8DirEntryD2Ev                                  build/iso9660.o
                                                  build/virtualfilesystem.o
_ZN8EventBus10eventEntryEjjjjPv                   build/eventbus.o
_ZN8EventBus16registerListenerEjjjPvPFvS0_jjjjS0_E build/eventbus.o
                                                  build/main.o
_ZN8EventBus9pushEventEjjjjPv                     build/eventbus.o
_ZN8EventBusC1Ev                                  build/eventbus.o
                                                  build/main.o
_ZN8EventBusC2Ev                                  build/eventbus.o
_ZN8keyboard10initializeEv                        build/keyboard.o
                                                  build/main.o
_ZN8keyboard13scanset2_map1E                      build/keyboard.o
_ZN8keyboard13scanset2_map2E                      build/keyboard.o
_ZN8keyboard14KeyboardDriver10clearCodesEv        build/keyboard.o
_ZN8keyboard14KeyboardDriver10interrupt1Ej        build/keyboard.o
_ZN8keyboard14KeyboardDriver10pushBufferENS_15VirtualKeyEventE build/keyboard.o
_ZN8keyboard14KeyboardDriver11sendCommandEh       build/keyboard.o
_ZN8keyboard14KeyboardDriver12updateStatusENS_15VirtualKeyEventE build/keyboard.o
_ZN8keyboard14KeyboardDriver13sendKBCommandEh     build/keyboard.o
_ZN8keyboard14KeyboardDriver14getScanCodeSetEv    build/keyboard.o
_ZN8keyboard14KeyboardDriver14setScanCodeSetEh    build/keyboard.o
_ZN8keyboard14KeyboardDriver15sendDataCommandEhh  build/keyboard.o
_ZN8keyboard14KeyboardDriver15waitForResponseEv   build/keyboard.o
_ZN8keyboard14KeyboardDriver17sendDataKBCommandEhh build/keyboard.o
_ZN8keyboard14KeyboardDriver22setScanCodeTranslationEb build/keyboard.o
_ZN8keyboard14KeyboardDriver28convertMakeScancodeToKeycodeEv build/keyboard.o
_ZN8keyboard14KeyboardDriver29convertBreakScancodeToKeycodeEv build/keyboard.o
_ZN8keyboard14KeyboardDriver4readEPvm             build/keyboard.o
_ZN8keyboard14KeyboardDriver4seekEii              build/keyboard.o
_ZN8keyboard14KeyboardDriver5writeEPKv            build/keyboard.o
_ZN8keyboard14KeyboardDriver5writeEPKvm           build/keyboard.o
_ZN8keyboard14KeyboardDriver5writeEc              build/keyboard.o
_ZN8keyboard14KeyboardDriver7addCodeEh            build/keyboard.o
_ZN8keyboard14KeyboardDriver9enableIRQEv          build/keyboard.o
_ZN8keyboard14KeyboardDriver9popBufferEv          build/keyboard.o
_ZN8keyboard14KeyboardDriverC1Ev                  build/keyboard.o
_ZN8keyboard14KeyboardDriverC2Ev                  build/keyboard.o
_ZN8keyboard14KeyboardDriverD0Ev                  build/keyboard.o
_ZN8keyboard14KeyboardDriverD1Ev                  build/keyboard.o
_ZN8keyboard14KeyboardDriverD2Ev                  build/keyboard.o
_ZN8keyboard15VirtualKeyEventC1ENS_14VirtualKeycodeEh build/keyboard.o
_ZN8keyboard15VirtualKeyEventC1Ev                 build/keyboard.o
                                                  build/kernelshell.o
_ZN8keyboard15VirtualKeyEventC2ENS_14VirtualKeycodeEh build/keyboard.o
_ZN8keyboard15VirtualKeyEventC2Ev                 build/keyboard.o
_ZN8keyboard18intHandlerKeyboardEj                build/keyboard.o
_ZN9PCIDevice10writeIOBAREij                      build/pcidevice.o
_ZN9PCIDevice14configReadByteEh                   build/pcidevice.o
_ZN9PCIDevice14configReadLongEh                   build/pcidevice.o
_ZN9PCIDevice14configReadWordEh                   build/pcidevice.o
_ZN9PCIDevice15configWriteByteEhh                 build/pcidevice.o
_ZN9PCIDevice15configWriteLongEhj                 build/pcidevice.o
_ZN9PCIDevice15configWriteWordEht                 build/pcidevice.o
_ZN9PCIDevice9readIOBAREi                         build/pcidevice.o
                                                  build/pciide.o
_ZN9PCIDeviceC1Ehhh                               build/pcidevice.o
                                                  build/pci.o
_ZN9PCIDeviceC2Ehhh                               build/pcidevice.o
                                                  build/pciide.o
_ZN9PCIDeviceD0Ev                                 build/pcidevice.o
_ZN9PCIDeviceD1Ev                                 build/pcidevice.o
_ZN9PCIDeviceD2Ev                                 build/pcidevice.o
                                                  build/pciide.o
_ZN9SymbolMap11find_symbolEPKc                    build/symbolmap.o
                                                  build/elf.o
_ZN9SymbolMapC1EPKc                               build/symbolmap.o
                                                  build/main.o
_ZN9SymbolMapC2EPKc                               build/symbolmap.o
_ZN9VgaDriver10scrollDownEv                       build/vga.o
_ZN9VgaDriver10writeCharsEPc                      build/vga.o
_ZN9VgaDriver12updateCursorEv                     build/vga.o
_ZN9VgaDriver13generateEntryEc                    build/vga.o
_ZN9VgaDriver16advanceCharacterEv                 build/vga.o
_ZN9VgaDriver4readEPvm                            build/vga.o
_ZN9VgaDriver4seekEii                             build/vga.o
_ZN9VgaDriver5clearEv                             build/vga.o
_ZN9VgaDriver5writeEPKv                           build/vga.o
_ZN9VgaDriver5writeEPKvm                          build/vga.o
                                                  build/inputformatter.o
_ZN9VgaDriver5writeEc                             build/vga.o
_ZN9VgaDriver7getCharEtt                          build/vga.o
_ZN9VgaDriver7getCharEv                           build/vga.o
_ZN9VgaDriver7setCharEc                           build/vga.o
_ZN9VgaDriver7setCharEctt                         build/vga.o
_ZN9VgaDriver8scrollUpEv                          build/vga.o
_ZN9VgaDriver9setCursorEtt                        build/vga.o
_ZN9VgaDriver9writeCharEc                         build/vga.o
_ZN9VgaDriverC1Ev                                 build/vga.o
_ZN9VgaDriverC2Ev                                 build/vga.o
_ZN9VgaDriverD0Ev                                 build/vga.o
_ZN9VgaDriverD1Ev                                 build/vga.o
_ZN9VgaDriverD2Ev                                 build/vga.o
_ZN9threading12pidGeneratorE                      build/thread.o
                                                  build/eventbus.o
                                                  build/kernelshell.o
_ZN9threading13currentThreadEv                    build/thread.o
_ZN9threading17is_core_in_threadEh                build/thread.o
_ZN9threading25is_current_core_in_threadEv        build/thread.o
_ZN9threading4exitEv                              build/thread.o
                                                  build/ata.o
                                                  build/semaphore.o
                                                  build/main.o
_ZN9threading6Thread11setBlockingEb               build/thread.o
_ZN9threading6Thread19initializeArgumentsEj       build/kernelshell.o
                                                  build/eventbus.o
_ZN9threading6Thread19initializeArgumentsIM8EventBusFvjjjjPvEJPS2_jjjjS3_EEEvjT_DpT0_ build/eventbus.o
_ZN9threading6Thread19initializeArgumentsIP11KernelShellJPSt6vectorISt6stringEEEEvjT_DpT0_ build/kernelshell.o
_ZN9threading6Thread19initializeArgumentsIP8EventBusJjjjjPvEEEvjT_DpT0_ build/eventbus.o
_ZN9threading6Thread19initializeArgumentsIPSt6vectorISt6stringEJEEEvjT_DpT0_ build/kernelshell.o
_ZN9threading6Thread19initializeArgumentsIPvJEEEvjT_DpT0_ build/eventbus.o
_ZN9threading6Thread19initializeArgumentsIjJPvEEEvjT_DpT0_ build/eventbus.o
_ZN9threading6Thread19initializeArgumentsIjJjPvEEEvjT_DpT0_ build/eventbus.o
_ZN9threading6Thread19initializeArgumentsIjJjjPvEEEvjT_DpT0_ build/eventbus.o
_ZN9threading6Thread19initializeArgumentsIjJjjjPvEEEvjT_DpT0_ build/eventbus.o
_ZN9threading6Thread2idEv                         build/thread.o
_ZN9threading6Thread4killEv                       build/thread.o
_ZN9threading6Thread5enterEv                      build/thread.o
                                                  build/scheduler.o
_ZN9threading6Thread8blockingEv                   build/thread.o
_ZN9threading6Thread8finishedEv                   build/thread.o
                                                  build/scheduler.o
_ZN9threading6ThreadC1EOS0_                       build/thread.o
_ZN9threading6ThreadC1ERS0_                       build/thread.o
_ZN9threading6ThreadC1I8EventBusJjjjjPvEEEMT_FvDpT0_EPS4_S6_ build/eventbus.o
_ZN9threading6ThreadC1IJP11KernelShellPSt6vectorISt6stringEEEEPFvDpT_ES9_ build/kernelshell.o
_ZN9threading6ThreadC2EOS0_                       build/thread.o
_ZN9threading6ThreadC2ERS0_                       build/thread.o
_ZN9threading6ThreadC2I8EventBusJjjjjPvEEEMT_FvDpT0_EPS4_S6_ build/eventbus.o
_ZN9threading6ThreadC2IJP11KernelShellPSt6vectorISt6stringEEEEPFvDpT_ES9_ build/kernelshell.o
_ZN9threading6ThreadD1Ev                          build/thread.o
_ZN9threading6ThreadD2Ev                          build/thread.o
_ZN9threading6ThreadaSEOS0_                       build/thread.o
_ZN9threading6ThreadaSERS0_                       build/thread.o
_ZN9threading8Spinlock4lockEv                     build/spinlock.o
                                                  build/BucketAlloc.o
                                                  build/scheduler.o
                                                  build/semaphore.o
_ZN9threading8Spinlock7releaseEv                  build/spinlock.o
                                                  build/BucketAlloc.o
                                                  build/scheduler.o
                                                  build/semaphore.o
_ZN9threading8Spinlock8try_lockEv                 build/spinlock.o
_ZN9threading8SpinlockC1Ev                        build/spinlock.o
                                                  build/BucketAlloc.o
                                                  build/scheduler.o
                                                  build/semaphore.o
_ZN9threading8SpinlockC2Ev                        build/spinlock.o
_ZN9threading9Scheduler5enterEv                   build/scheduler.o
                                                  build/main.o
_ZN9threading9Scheduler8scheduleEPNS_6ThreadE     build/scheduler.o
                                                  build/eventbus.o
                                                  build/kernelshell.o
_ZN9threading9SchedulerC1Ev                       build/scheduler.o
                                                  build/main.o
_ZN9threading9SchedulerC2Ev                       build/scheduler.o
_ZN9threading9Semaphore4lockEv                    build/semaphore.o
                                                  build/ata.o
_ZN9threading9Semaphore7releaseEv                 build/semaphore.o
                                                  build/ata.o
_ZN9threading9Semaphore8try_lockEv                build/semaphore.o
_ZN9threading9SemaphoreC1Ei                       build/semaphore.o
                                                  build/ata.o
_ZN9threading9SemaphoreC2Ei                       build/semaphore.o
_ZN9threading9schedulerE                          build/scheduler.o
                                                  build/eventbus.o
                                                  build/main.o
                                                  build/kernelshell.o
_ZNK12MemoryStream13getDeviceInfoEPv              build/memorystream.o
_ZNK12MemoryStream13getDeviceTypeEv               build/memorystream.o
_ZNK14InputFormatter11isLineReadyEv               build/inputformatter.o
                                                  build/kernelshell.o
_ZNK3ata12AtaPioDevice13getDeviceInfoEPv          build/atapiodevice.o
_ZNK3ata12AtaPioDevice13getDeviceTypeEv           build/atapiodevice.o
_ZNK3ata15AtaPacketDevice13getDeviceInfoEPv       build/atapacketdevice.o
_ZNK3ata15AtaPacketDevice13getDeviceTypeEv        build/atapacketdevice.o
_ZNK6Serial13getDeviceInfoEPv                     build/serial.o
_ZNK6Serial13getDeviceTypeEv                      build/serial.o
_ZNK8keyboard14KeyboardDriver13getDeviceInfoEPv   build/keyboard.o
_ZNK8keyboard14KeyboardDriver13getDeviceTypeEv    build/keyboard.o
_ZNK9PCIDevice13getDeviceInfoEPv                  build/pcidevice.o
                                                  build/pciide.o
_ZNK9PCIDevice13getDeviceTypeEv                   build/pcidevice.o
                                                  build/pciide.o
_ZNK9VgaDriver13getDeviceInfoEPv                  build/vga.o
_ZNK9VgaDriver13getDeviceTypeEv                   build/vga.o
_ZNK9threading6Thread20stackSizeOfArgumentsEv     build/kernelshell.o
                                                  build/eventbus.o
_ZNK9threading6Thread20stackSizeOfArgumentsIM8EventBusFvjjjjPvEJEEEjT_DpT0_ build/eventbus.o
_ZNK9threading6Thread20stackSizeOfArgumentsIM8EventBusFvjjjjPvEJPS2_jjjjS3_EEEjT_DpT0_ build/eventbus.o
_ZNK9threading6Thread20stackSizeOfArgumentsIP11KernelShellJEEEjT_DpT0_ build/kernelshell.o
_ZNK9threading6Thread20stackSizeOfArgumentsIP11KernelShellJPSt6vectorISt6stringEEEEjT_DpT0_ build/kernelshell.o
_ZNK9threading6Thread20stackSizeOfArgumentsIP8EventBusJEEEjT_DpT0_ build/eventbus.o
_ZNK9threading6Thread20stackSizeOfArgumentsIP8EventBusJjjjjPvEEEjT_DpT0_ build/eventbus.o
_ZNK9threading6Thread20stackSizeOfArgumentsIPSt6vectorISt6stringEJEEEjT_DpT0_ build/kernelshell.o
_ZNK9threading6Thread20stackSizeOfArgumentsIPvJEEEjT_DpT0_ build/eventbus.o
_ZNK9threading6Thread20stackSizeOfArgumentsIjJEEEjT_DpT0_ build/eventbus.o
_ZNK9threading6Thread20stackSizeOfArgumentsIjJPvEEEjT_DpT0_ build/eventbus.o
_ZNK9threading6Thread20stackSizeOfArgumentsIjJjPvEEEjT_DpT0_ build/eventbus.o
_ZNK9threading6Thread20stackSizeOfArgumentsIjJjjPvEEEjT_DpT0_ build/eventbus.o
_ZNK9threading6Thread20stackSizeOfArgumentsIjJjjjPvEEEjT_DpT0_ build/eventbus.o
_ZNKSt4hashISt6stringEclERKS0_                    build/environment.o
                                                  build/symbolmap.o
_ZNKSt6string4dataEv                              build/string.o
                                                  build/kernelshell.o
_ZNKSt6string4sizeEv                              build/string.o
_ZNKSt6string5c_strEv                             build/string.o
                                                  build/filesystem.o
                                                  build/main.o
                                                  build/kernelshell.o
_ZNKSt6string6lengthEv                            build/string.o
                                                  build/symbolmap.o
                                                  build/environment.o
_ZNKSt6string7compareEPKc                         build/string.o
_ZNKSt6string7compareERKS_                        build/string.o
_ZNKSt6stringixEm                                 build/string.o
                                                  build/symbolmap.o
                                                  build/environment.o
_ZNKSt6vectorIP16VirtualDirectoryE4sizeEv         build/virtualfilesystem.o
_ZNKSt6vectorIP6DeviceE4findERKS1_                build/devicemanager.o
_ZNKSt6vectorIP6DeviceE4sizeEv                    build/devicemanager.o
                                                  build/main.o
_ZNKSt6vectorIPN4acpi11MADTIoEntryEE4sizeEv       build/apic.o
_ZNKSt6vectorIPN4acpi14MADTLocalEntryEE4sizeEv    build/apic.o
_ZNKSt6vectorIPN9threading6ThreadEE4sizeEv        build/scheduler.o
_ZNKSt6vectorIPhE4sizeEv                          build/iso9660.o
_ZNKSt6vectorIS_IcEE4sizeEv                       build/inputformatter.o
_ZNKSt6vectorISt4pairIPKcPFvP11KernelShellPS_ISt6stringEEEE4sizeEv build/kernelshell.o
_ZNKSt6vectorISt4pairISt6stringP10FileSystemEE4sizeEv build/virtualfilesystem.o
_ZNKSt6vectorISt4pairISt6stringP11BlockDeviceEE4sizeEv build/virtualfilesystem.o
_ZNKSt6vectorISt6stringE4sizeEv                   build/kernelshell.o
                                                  build/filesystem.o
_ZNKSt6vectorIcE4sizeEv                           build/inputformatter.o
_ZNSt13unordered_mapISt6string14SymbolMapEntryE12increaseSizeEv build/symbolmap.o
_ZNSt13unordered_mapISt6string14SymbolMapEntryE15allocateBucketsEv build/symbolmap.o
_ZNSt13unordered_mapISt6string14SymbolMapEntryE3putERKS0_RKS1_ build/symbolmap.o
_ZNSt13unordered_mapISt6string14SymbolMapEntryE5countERKS0_ build/symbolmap.o
_ZNSt13unordered_mapISt6string14SymbolMapEntryEC1Ev build/symbolmap.o
_ZNSt13unordered_mapISt6string14SymbolMapEntryEC2Ev build/symbolmap.o
_ZNSt13unordered_mapISt6string14SymbolMapEntryEixERKS0_ build/symbolmap.o
_ZNSt13unordered_mapISt6stringS0_E12increaseSizeEv build/environment.o
_ZNSt13unordered_mapISt6stringS0_E15allocateBucketsEv build/environment.o
_ZNSt13unordered_mapISt6stringS0_E3putERKS0_S3_   build/environment.o
_ZNSt13unordered_mapISt6stringS0_E5clearEv        build/environment.o
_ZNSt13unordered_mapISt6stringS0_E5countERKS0_    build/environment.o
_ZNSt13unordered_mapISt6stringS0_E5eraseERKS0_    build/environment.o
_ZNSt13unordered_mapISt6stringS0_E8copyFromERKS1_ build/environment.o
_ZNSt13unordered_mapISt6stringS0_EC1Ev            build/environment.o
_ZNSt13unordered_mapISt6stringS0_EC2Ev            build/environment.o
_ZNSt13unordered_mapISt6stringS0_ED1Ev            build/environment.o
_ZNSt13unordered_mapISt6stringS0_ED2Ev            build/environment.o
_ZNSt13unordered_mapISt6stringS0_EaSERKS1_        build/environment.o
_ZNSt13unordered_mapISt6stringS0_EixERKS0_        build/environment.o
_ZNSt4pairIPKcPFvP11KernelShellPSt6vectorISt6stringEEEC1ERKS1_RKS9_ build/kernelshell.o
_ZNSt4pairIPKcPFvP11KernelShellPSt6vectorISt6stringEEEC2ERKS1_RKS9_ build/kernelshell.o
_ZNSt4pairISt6stringP10FileSystemEC1ERKS0_RKS2_   build/virtualfilesystem.o
_ZNSt4pairISt6stringP10FileSystemEC1ERKS3_        build/virtualfilesystem.o
_ZNSt4pairISt6stringP10FileSystemEC2ERKS0_RKS2_   build/virtualfilesystem.o
_ZNSt4pairISt6stringP10FileSystemEC2ERKS3_        build/virtualfilesystem.o
_ZNSt4pairISt6stringP10FileSystemED1Ev            build/virtualfilesystem.o
_ZNSt4pairISt6stringP10FileSystemED2Ev            build/virtualfilesystem.o
_ZNSt4pairISt6stringP11BlockDeviceED1Ev           build/virtualfilesystem.o
_ZNSt4pairISt6stringP11BlockDeviceED2Ev           build/virtualfilesystem.o
_ZNSt6stringC1EOS_                                build/string.o
_ZNSt6stringC1EPKc                                build/string.o
                                                  build/virtualfilesystem.o
                                                  build/iso9660.o
                                                  build/main.o
                                                  build/symbolmap.o
                                                  build/environment.o
_ZNSt6stringC1EPKcm                               build/string.o
                                                  build/virtualfilesystem.o
                                                  build/filesystem.o
                                                  build/iso9660.o
                                                  build/atadevice.o
                                                  build/inputformatter.o
                                                  build/kernelshell.o
_ZNSt6stringC1ERKS_                               build/string.o
                                                  build/virtualfilesystem.o
                                                  build/filesystem.o
                                                  build/symbolmap.o
                                                  build/kernelshell.o
                                                  build/environment.o
_ZNSt6stringC1Emc                                 build/string.o
_ZNSt6stringC1Ev                                  build/string.o
                                                  build/virtualfilesystem.o
                                                  build/filesystem.o
                                                  build/atadevice.o
                                                  build/environment.o
_ZNSt6stringC2EOS_                                build/string.o
_ZNSt6stringC2EPKc                                build/string.o
_ZNSt6stringC2EPKcm                               build/string.o
_ZNSt6stringC2ERKS_                               build/string.o
_ZNSt6stringC2Emc                                 build/string.o
_ZNSt6stringC2Ev                                  build/string.o
_ZNSt6stringD1Ev                                  build/string.o
                                                  build/virtualfilesystem.o
                                                  build/filesystem.o
                                                  build/atadevice.o
                                                  build/main.o
                                                  build/symbolmap.o
                                                  build/kernelshell.o
                                                  build/environment.o
_ZNSt6stringD2Ev                                  build/string.o
_ZNSt6stringaSEOS_                                build/string.o
                                                  build/filesystem.o
                                                  build/atadevice.o
_ZNSt6stringaSEPKc                                build/string.o
_ZNSt6stringaSERKS_                               build/string.o
                                                  build/virtualfilesystem.o
                                                  build/environment.o
_ZNSt6stringaSEc                                  build/string.o
_ZNSt6stringixEm                                  build/string.o
_ZNSt6stringpLEPKc                                build/string.o
_ZNSt6stringpLERKS_                               build/string.o
                                                  build/filesystem.o
_ZNSt6stringpLEc                                  build/string.o
                                                  build/filesystem.o
                                                  build/symbolmap.o
_ZNSt6vectorIP16VirtualDirectoryE10testExpandEv   build/virtualfilesystem.o
_ZNSt6vectorIP16VirtualDirectoryE9push_backERKS1_ build/virtualfilesystem.o
_ZNSt6vectorIP16VirtualDirectoryEC1Ev             build/virtualfilesystem.o
_ZNSt6vectorIP16VirtualDirectoryEC2Ev             build/virtualfilesystem.o
_ZNSt6vectorIP16VirtualDirectoryED1Ev             build/virtualfilesystem.o
_ZNSt6vectorIP16VirtualDirectoryED2Ev             build/virtualfilesystem.o
_ZNSt6vectorIP16VirtualDirectoryEixEm             build/virtualfilesystem.o
_ZNSt6vectorIP6DeviceE10testExpandEv              build/devicemanager.o
_ZNSt6vectorIP6DeviceE5eraseEm                    build/devicemanager.o
_ZNSt6vectorIP6DeviceE9push_backERKS1_            build/devicemanager.o
_ZNSt6vectorIP6DeviceEC1ERKS2_                    build/main.o
_ZNSt6vectorIP6DeviceEC1Ev                        build/devicemanager.o
_ZNSt6vectorIP6DeviceEC2ERKS2_                    build/main.o
_ZNSt6vectorIP6DeviceEC2Ev                        build/devicemanager.o
_ZNSt6vectorIP6DeviceED1Ev                        build/devicemanager.o
                                                  build/main.o
_ZNSt6vectorIP6DeviceED2Ev                        build/devicemanager.o
                                                  build/main.o
_ZNSt6vectorIP6DeviceEixEm                        build/devicemanager.o
                                                  build/main.o
_ZNSt6vectorIPN4acpi11MADTIoEntryEE10testExpandEv build/apic.o
_ZNSt6vectorIPN4acpi11MADTIoEntryEE9push_backERKS2_ build/apic.o
_ZNSt6vectorIPN4acpi11MADTIoEntryEEC1Ev           build/apic.o
_ZNSt6vectorIPN4acpi11MADTIoEntryEEC2Ev           build/apic.o
_ZNSt6vectorIPN4acpi11MADTIoEntryEED1Ev           build/apic.o
_ZNSt6vectorIPN4acpi11MADTIoEntryEED2Ev           build/apic.o
_ZNSt6vectorIPN4acpi11MADTIoEntryEEixEm           build/apic.o
_ZNSt6vectorIPN4acpi14MADTLocalEntryEE10testExpandEv build/apic.o
_ZNSt6vectorIPN4acpi14MADTLocalEntryEE9push_backEOS2_ build/apic.o
_ZNSt6vectorIPN4acpi14MADTLocalEntryEEC1Ev        build/apic.o
_ZNSt6vectorIPN4acpi14MADTLocalEntryEEC2Ev        build/apic.o
_ZNSt6vectorIPN4acpi14MADTLocalEntryEED1Ev        build/apic.o
_ZNSt6vectorIPN4acpi14MADTLocalEntryEED2Ev        build/apic.o
_ZNSt6vectorIPN4acpi14MADTLocalEntryEEixEm        build/apic.o
_ZNSt6vectorIPN9threading6ThreadEE10testExpandEv  build/scheduler.o
_ZNSt6vectorIPN9threading6ThreadEE5eraseEm        build/scheduler.o
_ZNSt6vectorIPN9threading6ThreadEE9push_backERKS2_ build/scheduler.o
_ZNSt6vectorIPN9threading6ThreadEEC1Ev            build/scheduler.o
_ZNSt6vectorIPN9threading6ThreadEEC2Ev            build/scheduler.o
_ZNSt6vectorIPN9threading6ThreadEEixEm            build/scheduler.o
_ZNSt6vectorIPhE10testExpandEv                    build/iso9660.o
_ZNSt6vectorIPhE9push_backERKS0_                  build/iso9660.o
_ZNSt6vectorIPhEC1Ev                              build/iso9660.o
_ZNSt6vectorIPhEC2Ev                              build/iso9660.o
_ZNSt6vectorIPhED1Ev                              build/iso9660.o
_ZNSt6vectorIPhED2Ev                              build/iso9660.o
_ZNSt6vectorIPhEixEm                              build/iso9660.o
_ZNSt6vectorIS_IcEE10testExpandEv                 build/inputformatter.o
_ZNSt6vectorIS_IcEE4backEv                        build/inputformatter.o
_ZNSt6vectorIS_IcEE9push_backEOS0_                build/inputformatter.o
_ZNSt6vectorIS_IcEEC1Ev                           build/inputformatter.o
_ZNSt6vectorIS_IcEEC2Ev                           build/inputformatter.o
_ZNSt6vectorIS_IcEEixEm                           build/inputformatter.o
_ZNSt6vectorISt4pairIPKcPFvP11KernelShellPS_ISt6stringEEEE10testExpandEv build/kernelshell.o
_ZNSt6vectorISt4pairIPKcPFvP11KernelShellPS_ISt6stringEEEE4backEv build/kernelshell.o
_ZNSt6vectorISt4pairIPKcPFvP11KernelShellPS_ISt6stringEEEE9push_backEOSA_ build/kernelshell.o
_ZNSt6vectorISt4pairIPKcPFvP11KernelShellPS_ISt6stringEEEEC1Ev build/kernelshell.o
_ZNSt6vectorISt4pairIPKcPFvP11KernelShellPS_ISt6stringEEEEC2Ev build/kernelshell.o
_ZNSt6vectorISt4pairIPKcPFvP11KernelShellPS_ISt6stringEEEEixEm build/kernelshell.o
_ZNSt6vectorISt4pairISt6stringP10FileSystemEE10testExpandEv build/virtualfilesystem.o
_ZNSt6vectorISt4pairISt6stringP10FileSystemEE9push_backEOS4_ build/virtualfilesystem.o
_ZNSt6vectorISt4pairISt6stringP10FileSystemEEC1Ev build/virtualfilesystem.o
_ZNSt6vectorISt4pairISt6stringP10FileSystemEEC2Ev build/virtualfilesystem.o
_ZNSt6vectorISt4pairISt6stringP10FileSystemEED1Ev build/virtualfilesystem.o
_ZNSt6vectorISt4pairISt6stringP10FileSystemEED2Ev build/virtualfilesystem.o
_ZNSt6vectorISt4pairISt6stringP10FileSystemEEixEm build/virtualfilesystem.o
_ZNSt6vectorISt4pairISt6stringP11BlockDeviceEEC1Ev build/virtualfilesystem.o
_ZNSt6vectorISt4pairISt6stringP11BlockDeviceEEC2Ev build/virtualfilesystem.o
_ZNSt6vectorISt4pairISt6stringP11BlockDeviceEED1Ev build/virtualfilesystem.o
_ZNSt6vectorISt4pairISt6stringP11BlockDeviceEED2Ev build/virtualfilesystem.o
_ZNSt6vectorISt6stringE10testExpandEv             build/kernelshell.o
                                                  build/filesystem.o
_ZNSt6vectorISt6stringE2atEm                      build/kernelshell.o
_ZNSt6vectorISt6stringE5eraseEm                   build/filesystem.o
_ZNSt6vectorISt6stringE9push_backEOS0_            build/kernelshell.o
_ZNSt6vectorISt6stringE9push_backERKS0_           build/filesystem.o
_ZNSt6vectorISt6stringEC1Ev                       build/kernelshell.o
                                                  build/filesystem.o
_ZNSt6vectorISt6stringEC2Ev                       build/kernelshell.o
                                                  build/filesystem.o
_ZNSt6vectorISt6stringED1Ev                       build/kernelshell.o
                                                  build/filesystem.o
_ZNSt6vectorISt6stringED2Ev                       build/kernelshell.o
                                                  build/filesystem.o
_ZNSt6vectorISt6stringEaSEOS1_                    build/kernelshell.o
_ZNSt6vectorISt6stringEixEm                       build/filesystem.o
_ZNSt6vectorIcE10testExpandEv                     build/inputformatter.o
_ZNSt6vectorIcE4backEv                            build/inputformatter.o
_ZNSt6vectorIcE4dataEv                            build/inputformatter.o
_ZNSt6vectorIcE5clearEv                           build/inputformatter.o
_ZNSt6vectorIcE5eraseEm                           build/inputformatter.o
_ZNSt6vectorIcE6insertEmRKc                       build/inputformatter.o
_ZNSt6vectorIcE8pop_backEv                        build/inputformatter.o
_ZNSt6vectorIcE9push_backEOc                      build/inputformatter.o
_ZNSt6vectorIcE9push_backERKc                     build/inputformatter.o
_ZNSt6vectorIcEC1ERKS0_                           build/inputformatter.o
_ZNSt6vectorIcEC1Ev                               build/inputformatter.o
_ZNSt6vectorIcEC2ERKS0_                           build/inputformatter.o
_ZNSt6vectorIcEC2Ev                               build/inputformatter.o
_ZNSt6vectorIcED1Ev                               build/inputformatter.o
_ZNSt6vectorIcED2Ev                               build/inputformatter.o
_ZNSt6vectorIcEixEm                               build/inputformatter.o
_ZSt3minImERKT_S2_S2_                             build/string.o
_ZSt4moveIRM8EventBusFvjjjjPvEEONSt16remove_referenceIT_E4typeEOS6_ build/eventbus.o
_ZSt4moveIRP11KernelShellEONSt16remove_referenceIT_E4typeEOS4_ build/kernelshell.o
_ZSt4moveIRP6DeviceEONSt16remove_referenceIT_E4typeEOS4_ build/devicemanager.o
_ZSt4moveIRP8EventBusEONSt16remove_referenceIT_E4typeEOS4_ build/eventbus.o
_ZSt4moveIRPN9threading6ThreadEEONSt16remove_referenceIT_E4typeEOS5_ build/scheduler.o
_ZSt4moveIRPSt6vectorISt6stringEEONSt16remove_referenceIT_E4typeEOS6_ build/kernelshell.o
_ZSt4moveIRPvEONSt16remove_referenceIT_E4typeEOS3_ build/eventbus.o
_ZSt4moveIRSt6stringEONSt16remove_referenceIT_E4typeEOS3_ build/filesystem.o
_ZSt4moveIRcEONSt16remove_referenceIT_E4typeEOS2_ build/inputformatter.o
_ZSt4moveIRjEONSt16remove_referenceIT_E4typeEOS2_ build/eventbus.o
_ZSt7roundupIjET_S0_S0_                           build/iso9660.o
_ZSt7roundupImET_S0_S0_                           build/kernelshell.o
                                                  build/eventbus.o
_ZSteqPKcRKSt6string                              build/string.o
_ZSteqRKSt6stringPKc                              build/string.o
                                                  build/virtualfilesystem.o
                                                  build/filesystem.o
                                                  build/kernelshell.o
_ZSteqRKSt6stringS1_                              build/string.o
                                                  build/virtualfilesystem.o
                                                  build/symbolmap.o
                                                  build/environment.o
_ZStnePKcRKSt6string                              build/string.o
_ZStneRKSt6stringPKc                              build/string.o
                                                  build/main.o
_ZStneRKSt6stringS1_                              build/string.o
_ZStplPKcRKSt6string                              build/string.o
_ZStplRKSt6stringPKc                              build/string.o
_ZStplRKSt6stringS1_                              build/string.o
_ZStplRKSt6stringc                                build/string.o
_ZStplcRKSt6string                                build/string.o
_ZTV10FileSystem                                  build/iso9660.o
                                                  build/virtualfilesystem.o
_ZTV11BlockDevice                                 build/blockdevice.o
                                                  build/atadevice.o
                                                  build/vga.o
                                                  build/memorystream.o
                                                  build/serial.o
                                                  build/keyboard.o
_ZTV12MemoryStream                                build/memorystream.o
_ZTV15Iso9660DirEntry                             build/iso9660.o
_ZTV15VirtualDirEntry                             build/virtualfilesystem.o
_ZTV17Iso9660FileSystem                           build/iso9660.o
_ZTV17VirtualFileSystem                           build/virtualfilesystem.o
_ZTV6Device                                       build/device.o
                                                  build/pcidevice.o
                                                  build/atadevice.o
                                                  build/vga.o
                                                  build/memorystream.o
                                                  build/serial.o
                                                  build/keyboard.o
_ZTV6PCIIDE                                       build/pciide.o
_ZTV6Serial                                       build/serial.o
_ZTV8DirEntry                                     build/iso9660.o
                                                  build/virtualfilesystem.o
_ZTV9PCIDevice                                    build/pcidevice.o
_ZTV9VgaDriver                                    build/vga.o
_ZTVN3ata12AtaPioDeviceE                          build/atapiodevice.o
_ZTVN3ata15AtaPacketDeviceE                       build/atapacketdevice.o
_ZTVN3ata9AtaDeviceE                              build/atadevice.o
_ZTVN8keyboard14KeyboardDriverE                   build/keyboard.o
_ZdaPv                                            build/new.o
                                                  build/string.o
                                                  build/iso9660.o
                                                  build/atadevice.o
                                                  build/atapiodevice.o
                                                  build/memorystream.o
                                                  build/thread.o
                                                  build/symbolmap.o
                                                  build/environment.o
_ZdaPvS_                                          build/new.o
_ZdlPv                                            build/new.o
                                                  build/virtualfilesystem.o
                                                  build/iso9660.o
                                                  build/pcidevice.o
                                                  build/pciide.o
                                                  build/atadevice.o
                                                  build/atapacketdevice.o
                                                  build/atapiodevice.o
                                                  build/vga.o
                                                  build/device.o
                                                  build/blockdevice.o
                                                  build/memorystream.o
                                                  build/serial.o
                                                  build/keyboard.o
                                                  build/kernelshell.o
_ZdlPvS_                                          build/new.o
_Znam                                             build/new.o
                                                  build/string.o
                                                  build/iso9660.o
                                                  build/ata.o
                                                  build/atapiodevice.o
                                                  build/eventbus.o
                                                  build/thread.o
                                                  build/symbolmap.o
                                                  build/apic.o
                                                  build/kernelshell.o
                                                  build/environment.o
_ZnamPv                                           build/new.o
_Znwm                                             build/new.o
                                                  build/virtualfilesystem.o
                                                  build/iso9660.o
                                                  build/pci.o
                                                  build/ata.o
                                                  build/serial.o
                                                  build/keyboard.o
                                                  build/eventbus.o
                                                  build/main.o
                                                  build/kernelshell.o
_ZnwmPv                                           build/new.o
                                                  build/virtualfilesystem.o
                                                  build/filesystem.o
                                                  build/iso9660.o
                                                  build/inputformatter.o
                                                  build/scheduler.o
                                                  build/main.o
                                                  build/symbolmap.o
                                                  build/devicemanager.o
                                                  build/apic.o
                                                  build/kernelshell.o
                                                  build/environment.o
__DTOR_END__                                      /usr/lib/gcc/i686-elf/9.2.0/crtend.o
                                                  /usr/lib/gcc/i686-elf/9.2.0/crtbegin.o
__KERNEL_END_PHYSICAL                             build/virtual.o
                                                  build/main.o
__KERNEL_END_VIRTUAL                              build/BucketAlloc.o
                                                  build/main.o
                                                  build/apic.o
                                                  build/acpi.o
__TMC_END__                                       /usr/lib/gcc/i686-elf/9.2.0/crtend.o
                                                  /usr/lib/gcc/i686-elf/9.2.0/crtbegin.o
__cxa_atexit                                      build/abi.o
                                                  build/vga.o
                                                  build/devicemanager.o
                                                  build/apic.o
__cxa_pure_virtual                                build/abi.o
                                                  build/virtualfilesystem.o
                                                  build/iso9660.o
                                                  build/atadevice.o
                                                  build/device.o
                                                  build/blockdevice.o
__deregister_frame_info                           /usr/lib/gcc/i686-elf/9.2.0/crtbegin.o
__dso_handle                                      /usr/lib/gcc/i686-elf/9.2.0/crtbegin.o
                                                  build/vga.o
                                                  build/devicemanager.o
                                                  build/apic.o
__popcountsi2                                     /usr/lib/gcc/i686-elf/9.2.0/libgcc.a(_popcountsi2.o)
                                                  build/BucketAlloc.o
__realmode_lma_end                                build/main.o
__realmode_lma_start                              build/main.o
__realmode_vma_start                              build/main.o
__register_frame_info                             /usr/lib/gcc/i686-elf/9.2.0/crtbegin.o
__udivdi3                                         /usr/lib/gcc/i686-elf/9.2.0/libgcc.a(_udivdi3.o)
                                                  build/sleep.o
_fini                                             build/crti.o
                                                  build/boot.o
_init                                             build/crti.o
                                                  build/boot.o
_loader                                           build/boot.o
cppInt                                            build/interrupt.o
deviceManager                                     build/devicemanager.o
                                                  build/pci.o
                                                  build/ata.o
                                                  build/serial.o
                                                  build/keyboard.o
                                                  build/inputformatter.o
                                                  build/main.o
                                                  build/kernelshell.o
end_interrupt                                     build/interrupt.o
                                                  build/thread_asm.o
                                                  build/keyboard.o
                                                  build/interruptHandlers.o
end_smp_trampoline_entry                          build/smp_trampoline.o
esp0_top                                          build/boot.o
                                                  build/descriptor_asm.o
free                                              root//usr/lib/libk.a(free.o)
                                                  build/new.o
                                                  build/virtualfilesystem.o
                                                  build/filesystem.o
                                                  build/iso9660.o
                                                  build/inputformatter.o
                                                  build/main.o
                                                  build/symbolmap.o
                                                  build/devicemanager.o
                                                  build/apic.o
                                                  build/kernelshell.o
                                                  build/environment.o
fseek                                             root//usr/lib/libk.a(fseek.o)
                                                  build/inputformatter.o
get_parent_stack                                  build/thread.o
                                                  build/thread_asm.o
idt                                               build/interrupt.o
                                                  build/keyboard.o
                                                  build/main.o
initialize_tss                                    build/descriptor_asm.o
is_current_core_in_thread                         build/thread.o
                                                  build/thread_asm.o
kernelAllocator                                   build/alloc.o
                                                  root//usr/lib/libk.a(malloc.o)
                                                  root//usr/lib/libk.a(free.o)
                                                  root//usr/lib/libk.a(realloc.o)
                                                  build/main.o
                                                  build/kernelshell.o
main                                              build/main.o
                                                  build/boot.o
malloc                                            root//usr/lib/libk.a(malloc.o)
                                                  build/new.o
                                                  build/virtualfilesystem.o
                                                  build/filesystem.o
                                                  build/iso9660.o
                                                  build/inputformatter.o
                                                  build/scheduler.o
                                                  build/main.o
                                                  build/symbolmap.o
                                                  build/devicemanager.o
                                                  build/apic.o
                                                  build/kernelshell.o
                                                  build/environment.o
memcmp                                            root//usr/lib/libk.a(memcmp.o)
                                                  build/string.o
                                                  build/acpi.o
memcpy                                            root//usr/lib/libk.a(memcpy.o)
                                                  build/string.o
                                                  build/LinearAlloc.o
                                                  build/BucketAlloc.o
                                                  build/atapiodevice.o
                                                  build/memorystream.o
                                                  build/thread.o
memset                                            root//usr/lib/libk.a(memset.o)
                                                  build/physical.o
                                                  build/virtual.o
                                                  build/LinearAlloc.o
                                                  build/eventbus.o
                                                  build/kernelshell.o
parent_stack_pointers                             build/thread.o
pci_device_names                                  build/pci.o
printf                                            root//usr/lib/libk.a(printf.o)
                                                  build/iso9660.o
                                                  build/LinearAlloc.o
                                                  build/BucketAlloc.o
                                                  build/pcidevice.o
                                                  build/pci.o
                                                  build/atadevice.o
                                                  build/atapacketdevice.o
                                                  build/atapiodevice.o
                                                  build/serial.o
                                                  build/main.o
                                                  build/cpu.o
                                                  build/elf.o
                                                  build/sleep.o
                                                  build/apic.o
                                                  build/acpi.o
                                                  build/kernelshell.o
                                                  build/interruptHandlers.o
putchar                                           root//usr/lib/libk.a(putchar.o)
                                                  root//usr/lib/libk.a(printf.o)
                                                  build/elf.o
realloc                                           root//usr/lib/libk.a(realloc.o)
                                                  build/virtualfilesystem.o
                                                  build/filesystem.o
                                                  build/iso9660.o
                                                  build/inputformatter.o
                                                  build/scheduler.o
                                                  build/devicemanager.o
                                                  build/apic.o
                                                  build/kernelshell.o
reloadGdt                                         build/descriptor_asm.o
                                                  build/gdt.o
reload_idt                                        build/descriptor_asm.o
                                                  build/interrupt.o
reload_segments                                   build/descriptor_asm.o
running_thread                                    build/thread.o
smp_gdt_offset                                    build/smp_trampoline.o
                                                  build/apic.o
smp_gdt_size                                      build/smp_trampoline.o
                                                  build/apic.o
smp_page                                          build/smp_trampoline.o
                                                  build/apic.o
smp_stack                                         build/smp_trampoline.o
                                                  build/apic.o
smp_trampoline_entry                              build/smp_trampoline.o
stack_top                                         build/boot.o
stdout                                            root//usr/lib/libk.a(stdio.o)
                                                  root//usr/lib/libk.a(putchar.o)
                                                  build/inputformatter.o
strcmp                                            root//usr/lib/libk.a(strcmp.o)
                                                  build/elf.o
strcpy                                            root//usr/lib/libk.a(strcpy.o)
                                                  build/string.o
strlen                                            root//usr/lib/libk.a(strlen.o)
                                                  build/string.o
                                                  build/filesystem.o
                                                  build/serial.o
testprint                                         build/elf.o
thread_enter                                      build/thread_asm.o
                                                  build/thread.o
thread_entry                                      build/thread_asm.o
                                                  build/eventbus.o
                                                  build/kernelshell.o
thread_exit                                       build/thread_asm.o
                                                  build/thread.o
thread_finished                                   build/thread_asm.o
thread_interrupt                                  build/thread_asm.o
                                                  build/main.o
tthread1                                          build/main.o
unknown_device                                    build/pci.o
vfs                                               build/virtualfilesystem.o
                                                  build/main.o
                                                  build/kernelshell.o
vgaDriver                                         build/vga.o
                                                  root//usr/lib/libk.a(stdio.o)
                                                  build/inputformatter.o
                                                  build/main.o
